SF:/home/lokis/Documents/AI-Native-Kernel/crates/agent-scheduler/src/block.rs
FN:119,_RNvNtNtCs4ATkuxJMDK0_15agent_scheduler5block5testss_30test_agent_control_block_clone
FN:132,_RNvNtNtCs4ATkuxJMDK0_15agent_scheduler5block5testss_30test_agent_control_block_debug
FN:64,_RNvNtNtCs4ATkuxJMDK0_15agent_scheduler5block5testss_33test_agent_control_block_creation
FN:101,_RNvNtNtCs4ATkuxJMDK0_15agent_scheduler5block5testss_34test_agent_state_enum_all_variants
FN:76,_RNvNtNtCs4ATkuxJMDK0_15agent_scheduler5block5testss_42test_agent_control_block_with_custom_state
FN:45,_RNvMNtCs4ATkuxJMDK0_15agent_scheduler5blockNtB2_17AgentControlBlock3new
FN:45,_RNvMNtCsljdnD5lSkbI_15agent_scheduler5blockNtB2_17AgentControlBlock3new
FNDA:1,_RNvNtNtCs4ATkuxJMDK0_15agent_scheduler5block5testss_30test_agent_control_block_clone
FNDA:1,_RNvNtNtCs4ATkuxJMDK0_15agent_scheduler5block5testss_30test_agent_control_block_debug
FNDA:1,_RNvNtNtCs4ATkuxJMDK0_15agent_scheduler5block5testss_33test_agent_control_block_creation
FNDA:1,_RNvNtNtCs4ATkuxJMDK0_15agent_scheduler5block5testss_34test_agent_state_enum_all_variants
FNDA:1,_RNvNtNtCs4ATkuxJMDK0_15agent_scheduler5block5testss_42test_agent_control_block_with_custom_state
FNDA:31,_RNvMNtCs4ATkuxJMDK0_15agent_scheduler5blockNtB2_17AgentControlBlock3new
FNDA:3136,_RNvMNtCsljdnD5lSkbI_15agent_scheduler5blockNtB2_17AgentControlBlock3new
FNF:6
FNH:6
DA:45,3167
DA:46,3167
DA:47,3167
DA:48,3167
DA:49,3167
DA:50,3167
DA:51,3167
DA:52,3167
DA:53,3167
DA:54,3167
DA:55,3167
DA:64,1
DA:65,1
DA:66,1
DA:67,1
DA:68,1
DA:69,1
DA:70,1
DA:71,1
DA:72,1
DA:73,1
DA:76,1
DA:77,1
DA:78,1
DA:79,1
DA:80,1
DA:81,1
DA:83,1
DA:84,1
DA:85,1
DA:86,1
DA:88,1
DA:89,1
DA:91,1
DA:92,1
DA:93,1
DA:94,1
DA:95,1
DA:96,1
DA:97,1
DA:98,1
DA:101,1
DA:102,1
DA:103,1
DA:104,1
DA:105,1
DA:106,1
DA:107,1
DA:108,1
DA:109,1
DA:111,6
DA:112,6
DA:113,6
DA:114,6
DA:116,1
DA:119,1
DA:120,1
DA:121,1
DA:123,1
DA:124,1
DA:125,1
DA:126,1
DA:127,1
DA:128,1
DA:129,1
DA:132,1
DA:133,1
DA:134,1
DA:135,1
DA:136,1
DA:137,1
BRF:0
BRH:0
LF:71
LH:71
end_of_record
SF:/home/lokis/Documents/AI-Native-Kernel/crates/agent-scheduler/src/priority.rs
FN:28,_RNvMNtCs4ATkuxJMDK0_15agent_scheduler8priorityNtB2_13PriorityAgent3new
FN:81,_RNvMs1_NtCs4ATkuxJMDK0_15agent_scheduler8priorityNtB5_13PriorityQueue3len
FN:59,_RNvMs1_NtCs4ATkuxJMDK0_15agent_scheduler8priorityNtB5_13PriorityQueue3new
FN:69,_RNvMs1_NtCs4ATkuxJMDK0_15agent_scheduler8priorityNtB5_13PriorityQueue3pop
FN:64,_RNvMs1_NtCs4ATkuxJMDK0_15agent_scheduler8priorityNtB5_13PriorityQueue4push
FN:75,_RNvMs1_NtCs4ATkuxJMDK0_15agent_scheduler8priorityNtB5_13PriorityQueue8is_empty
FN:44,_RNvXs0_NtCs4ATkuxJMDK0_15agent_scheduler8priorityNtB5_13PriorityAgentNtNtCs13ARFDxRLcQ_4core3cmp10PartialOrd11partial_cmp
FN:36,_RNvXs_NtCs4ATkuxJMDK0_15agent_scheduler8priorityNtB4_13PriorityAgentNtNtCs13ARFDxRLcQ_4core3cmp3Ord3cmp
FN:98,_RNvNtNtCs4ATkuxJMDK0_15agent_scheduler8priority5testss_22test_priority_ordering
FN:182,_RNvNtNtCs4ATkuxJMDK0_15agent_scheduler8priority5testss_23test_priority_enum_hash
FN:211,_RNvNtNtCs4ATkuxJMDK0_15agent_scheduler8priority5testss_25test_priority_agent_debug
FN:198,_RNvNtNtCs4ATkuxJMDK0_15agent_scheduler8priority5testss_25test_priority_queue_clear
FN:91,_RNvNtNtCs4ATkuxJMDK0_15agent_scheduler8priority5testss_28test_priority_agent_creation
FN:155,_RNvNtNtCs4ATkuxJMDK0_15agent_scheduler8priority5testss_33test_priority_enum_derived_traits
FN:131,_RNvNtNtCs4ATkuxJMDK0_15agent_scheduler8priority5testss_36test_priority_queue_basic_operations
FN:118,_RNvNtNtCs4ATkuxJMDK0_15agent_scheduler8priority5testss_38test_priority_agent_with_same_priority
FN:39,_RNCNvXs_NtCs4ATkuxJMDK0_15agent_scheduler8priorityNtB6_13PriorityAgentNtNtCs13ARFDxRLcQ_4core3cmp3Ord3cmp0B8_
FN:28,_RNvMNtCsljdnD5lSkbI_15agent_scheduler8priorityNtB2_13PriorityAgent3new
FN:81,_RNvMs1_NtCsljdnD5lSkbI_15agent_scheduler8priorityNtB5_13PriorityQueue3len
FN:59,_RNvMs1_NtCsljdnD5lSkbI_15agent_scheduler8priorityNtB5_13PriorityQueue3new
FN:69,_RNvMs1_NtCsljdnD5lSkbI_15agent_scheduler8priorityNtB5_13PriorityQueue3pop
FN:64,_RNvMs1_NtCsljdnD5lSkbI_15agent_scheduler8priorityNtB5_13PriorityQueue4push
FN:75,_RNvMs1_NtCsljdnD5lSkbI_15agent_scheduler8priorityNtB5_13PriorityQueue8is_empty
FN:44,_RNvXs0_NtCsljdnD5lSkbI_15agent_scheduler8priorityNtB5_13PriorityAgentNtNtCs13ARFDxRLcQ_4core3cmp10PartialOrd11partial_cmp
FN:36,_RNvXs_NtCsljdnD5lSkbI_15agent_scheduler8priorityNtB4_13PriorityAgentNtNtCs13ARFDxRLcQ_4core3cmp3Ord3cmp
FN:39,_RNCNvXs_NtCsljdnD5lSkbI_15agent_scheduler8priorityNtB6_13PriorityAgentNtNtCs13ARFDxRLcQ_4core3cmp3Ord3cmp0B8_
FNDA:13,_RNvMNtCs4ATkuxJMDK0_15agent_scheduler8priorityNtB2_13PriorityAgent3new
FNDA:5,_RNvMs1_NtCs4ATkuxJMDK0_15agent_scheduler8priorityNtB5_13PriorityQueue3len
FNDA:16,_RNvMs1_NtCs4ATkuxJMDK0_15agent_scheduler8priorityNtB5_13PriorityQueue3new
FNDA:3,_RNvMs1_NtCs4ATkuxJMDK0_15agent_scheduler8priorityNtB5_13PriorityQueue3pop
FNDA:5,_RNvMs1_NtCs4ATkuxJMDK0_15agent_scheduler8priorityNtB5_13PriorityQueue4push
FNDA:4,_RNvMs1_NtCs4ATkuxJMDK0_15agent_scheduler8priorityNtB5_13PriorityQueue8is_empty
FNDA:12,_RNvXs0_NtCs4ATkuxJMDK0_15agent_scheduler8priorityNtB5_13PriorityAgentNtNtCs13ARFDxRLcQ_4core3cmp10PartialOrd11partial_cmp
FNDA:12,_RNvXs_NtCs4ATkuxJMDK0_15agent_scheduler8priorityNtB4_13PriorityAgentNtNtCs13ARFDxRLcQ_4core3cmp3Ord3cmp
FNDA:1,_RNvNtNtCs4ATkuxJMDK0_15agent_scheduler8priority5testss_22test_priority_ordering
FNDA:1,_RNvNtNtCs4ATkuxJMDK0_15agent_scheduler8priority5testss_23test_priority_enum_hash
FNDA:1,_RNvNtNtCs4ATkuxJMDK0_15agent_scheduler8priority5testss_25test_priority_agent_debug
FNDA:1,_RNvNtNtCs4ATkuxJMDK0_15agent_scheduler8priority5testss_25test_priority_queue_clear
FNDA:1,_RNvNtNtCs4ATkuxJMDK0_15agent_scheduler8priority5testss_28test_priority_agent_creation
FNDA:1,_RNvNtNtCs4ATkuxJMDK0_15agent_scheduler8priority5testss_33test_priority_enum_derived_traits
FNDA:1,_RNvNtNtCs4ATkuxJMDK0_15agent_scheduler8priority5testss_36test_priority_queue_basic_operations
FNDA:1,_RNvNtNtCs4ATkuxJMDK0_15agent_scheduler8priority5testss_38test_priority_agent_with_same_priority
FNDA:1,_RNCNvXs_NtCs4ATkuxJMDK0_15agent_scheduler8priorityNtB6_13PriorityAgentNtNtCs13ARFDxRLcQ_4core3cmp3Ord3cmp0B8_
FNDA:0,_RNvMNtCsljdnD5lSkbI_15agent_scheduler8priorityNtB2_13PriorityAgent3new
FNDA:0,_RNvMs1_NtCsljdnD5lSkbI_15agent_scheduler8priorityNtB5_13PriorityQueue3len
FNDA:25,_RNvMs1_NtCsljdnD5lSkbI_15agent_scheduler8priorityNtB5_13PriorityQueue3new
FNDA:0,_RNvMs1_NtCsljdnD5lSkbI_15agent_scheduler8priorityNtB5_13PriorityQueue3pop
FNDA:0,_RNvMs1_NtCsljdnD5lSkbI_15agent_scheduler8priorityNtB5_13PriorityQueue4push
FNDA:0,_RNvMs1_NtCsljdnD5lSkbI_15agent_scheduler8priorityNtB5_13PriorityQueue8is_empty
FNDA:0,_RNvXs0_NtCsljdnD5lSkbI_15agent_scheduler8priorityNtB5_13PriorityAgentNtNtCs13ARFDxRLcQ_4core3cmp10PartialOrd11partial_cmp
FNDA:0,_RNvXs_NtCsljdnD5lSkbI_15agent_scheduler8priorityNtB4_13PriorityAgentNtNtCs13ARFDxRLcQ_4core3cmp3Ord3cmp
FNDA:0,_RNCNvXs_NtCsljdnD5lSkbI_15agent_scheduler8priorityNtB6_13PriorityAgentNtNtCs13ARFDxRLcQ_4core3cmp3Ord3cmp0B8_
FNF:17
FNH:17
DA:28,13
DA:29,13
DA:30,13
DA:36,12
DA:37,12
DA:38,12
DA:39,12
DA:40,12
DA:44,12
DA:45,12
DA:46,12
DA:59,41
DA:60,41
DA:61,41
DA:64,5
DA:65,5
DA:66,5
DA:69,3
DA:70,3
DA:71,3
DA:75,4
DA:76,4
DA:77,4
DA:81,5
DA:82,5
DA:83,5
DA:91,1
DA:92,1
DA:93,1
DA:94,1
DA:95,1
DA:98,1
DA:99,1
DA:100,1
DA:101,1
DA:102,1
DA:103,1
DA:106,1
DA:107,4
DA:108,4
DA:109,4
DA:111,1
DA:112,1
DA:113,1
DA:114,1
DA:115,1
DA:118,1
DA:119,1
DA:120,1
DA:122,1
DA:123,1
DA:124,1
DA:126,1
DA:127,1
DA:128,1
DA:131,1
DA:132,1
DA:134,1
DA:135,1
DA:137,1
DA:138,1
DA:139,1
DA:141,1
DA:142,1
DA:144,1
DA:145,1
DA:146,1
DA:148,1
DA:149,1
DA:150,1
DA:151,1
DA:152,1
DA:155,1
DA:156,1
DA:157,1
DA:158,1
DA:159,1
DA:160,1
DA:161,1
DA:163,4
DA:164,16
DA:165,16
DA:166,16
DA:167,16
DA:169,16
DA:170,10
DA:171,6
DA:172,16
DA:173,10
DA:174,6
DA:175,16
DA:176,16
DA:179,1
DA:182,1
DA:185,1
DA:186,1
DA:187,1
DA:188,1
DA:189,1
DA:191,1
DA:192,1
DA:193,1
DA:194,1
DA:195,1
DA:198,1
DA:199,1
DA:200,1
DA:201,1
DA:203,1
DA:205,1
DA:206,1
DA:207,1
DA:208,1
DA:211,1
DA:212,1
DA:213,1
DA:214,1
DA:215,1
DA:216,1
DA:217,1
BRF:0
BRH:0
LF:121
LH:121
end_of_record
SF:/home/lokis/Documents/AI-Native-Kernel/crates/agent-scheduler/src/scheduler.rs
FN:333,_RINvMNtCs4ATkuxJMDK0_15agent_scheduler9schedulerNtB3_14AgentScheduler13store_contextNtNtCs72dgD6uzVEf_5alloc6string6StringEB5_
FN:338,_RNCINvMNtCs4ATkuxJMDK0_15agent_scheduler9schedulerNtB5_14AgentScheduler13store_contextNtNtCs72dgD6uzVEf_5alloc6string6StringE0B7_
FN:324,_RNCNCNvMNtCs4ATkuxJMDK0_15agent_scheduler9schedulerNtB6_14AgentScheduler18get_running_agents00B8_
FN:235,_RNCNvMNtCs4ATkuxJMDK0_15agent_scheduler9schedulerNtB4_14AgentScheduler11pause_agent0B6_
FN:166,_RNCNvMNtCs4ATkuxJMDK0_15agent_scheduler9schedulerNtB4_14AgentScheduler11spawn_agent0B6_
FN:256,_RNCNvMNtCs4ATkuxJMDK0_15agent_scheduler9schedulerNtB4_14AgentScheduler12resume_agent0B6_
FN:201,_RNCNvMNtCs4ATkuxJMDK0_15agent_scheduler9schedulerNtB4_14AgentScheduler12route_intent0B6_
FN:190,_RNCNvMNtCs4ATkuxJMDK0_15agent_scheduler9schedulerNtB4_14AgentScheduler13submit_intent0B6_
FN:277,_RNCNvMNtCs4ATkuxJMDK0_15agent_scheduler9schedulerNtB4_14AgentScheduler15terminate_agent0B6_
FN:368,_RNCNvMNtCs4ATkuxJMDK0_15agent_scheduler9schedulerNtB4_14AgentScheduler16grant_capability0B6_
FN:155,_RNCNvMNtCs4ATkuxJMDK0_15agent_scheduler9schedulerNtB4_14AgentScheduler17allocate_agent_id0B6_
FN:320,_RNCNvMNtCs4ATkuxJMDK0_15agent_scheduler9schedulerNtB4_14AgentScheduler18get_running_agents0B6_
FN:311,_RNCNvMNtCs4ATkuxJMDK0_15agent_scheduler9schedulerNtB4_14AgentScheduler9get_agent0B6_
FN:511,_RNCNCNCNCNvMNtCs4ATkuxJMDK0_15agent_scheduler9schedulerNtBa_14AgentScheduler20start_scheduler_loop000s0_0Bc_
FN:468,_RNCNCNCNvMNtCs4ATkuxJMDK0_15agent_scheduler9schedulerNtB8_14AgentScheduler20start_scheduler_loop000Ba_
FN:295,_RNCNvMNtCs4ATkuxJMDK0_15agent_scheduler9schedulerNtB4_14AgentScheduler10fail_agent0B6_
FN:426,_RNCNvMNtCs4ATkuxJMDK0_15agent_scheduler9schedulerNtB4_14AgentScheduler13dequeue_agent0B6_
FN:409,_RNCNvMNtCs4ATkuxJMDK0_15agent_scheduler9schedulerNtB4_14AgentScheduler13enqueue_agent0B6_
FN:612,_RNCNvMNtCs4ATkuxJMDK0_15agent_scheduler9schedulerNtB4_14AgentScheduler13run_queue_len0B6_
FN:586,_RNCNvMNtCs4ATkuxJMDK0_15agent_scheduler9schedulerNtB4_14AgentScheduler18set_agent_priority0B6_
FN:553,_RNCNvMNtCs4ATkuxJMDK0_15agent_scheduler9schedulerNtB4_14AgentScheduler19execute_agent_slice0B6_
FN:538,_RNCNvMNtCs4ATkuxJMDK0_15agent_scheduler9schedulerNtB4_14AgentScheduler19stop_scheduler_loop0B6_
FN:618,_RNCNvMNtCs4ATkuxJMDK0_15agent_scheduler9schedulerNtB4_14AgentScheduler20is_scheduler_running0B6_
FN:455,_RNCNvMNtCs4ATkuxJMDK0_15agent_scheduler9schedulerNtB4_14AgentScheduler20start_scheduler_loop0B6_
FN:295,_RNvMNtCs4ATkuxJMDK0_15agent_scheduler9schedulerNtB2_14AgentScheduler10fail_agent
FN:134,_RNvMNtCs4ATkuxJMDK0_15agent_scheduler9schedulerNtB2_14AgentScheduler10supervisor
FN:426,_RNvMNtCs4ATkuxJMDK0_15agent_scheduler9schedulerNtB2_14AgentScheduler13dequeue_agent
FN:409,_RNvMNtCs4ATkuxJMDK0_15agent_scheduler9schedulerNtB2_14AgentScheduler13enqueue_agent
FN:612,_RNvMNtCs4ATkuxJMDK0_15agent_scheduler9schedulerNtB2_14AgentScheduler13run_queue_len
FN:582,_RNvMNtCs4ATkuxJMDK0_15agent_scheduler9schedulerNtB2_14AgentScheduler18set_agent_priority
FN:547,_RNvMNtCs4ATkuxJMDK0_15agent_scheduler9schedulerNtB2_14AgentScheduler19execute_agent_slice
FN:538,_RNvMNtCs4ATkuxJMDK0_15agent_scheduler9schedulerNtB2_14AgentScheduler19stop_scheduler_loop
FN:618,_RNvMNtCs4ATkuxJMDK0_15agent_scheduler9schedulerNtB2_14AgentScheduler20is_scheduler_running
FN:455,_RNvMNtCs4ATkuxJMDK0_15agent_scheduler9schedulerNtB2_14AgentScheduler20start_scheduler_loop
FN:139,_RNvMNtCs4ATkuxJMDK0_15agent_scheduler9schedulerNtB2_14AgentScheduler9subscribe
FN:635,_RNvNtNtCs4ATkuxJMDK0_15agent_scheduler9scheduler5tests9scheduler
FN:915,_RNvNtNtCs4ATkuxJMDK0_15agent_scheduler9scheduler5testss_29error_pause_nonexistent_agent
FN:708,_RNvNtNtCs4ATkuxJMDK0_15agent_scheduler9scheduler5testss_29route_command_can_spawn_agent
FN:887,_RNvNtNtCs4ATkuxJMDK0_15agent_scheduler9scheduler5testss_32error_pause_already_paused_agent
FN:922,_RNvNtNtCs4ATkuxJMDK0_15agent_scheduler9scheduler5testss_36error_duplicate_agent_id_is_rejected
FN:682,_RNvNtNtCs4ATkuxJMDK0_15agent_scheduler9scheduler5testss_36submit_intent_reaches_bus_subscriber
FN:903,_RNvNtNtCs4ATkuxJMDK0_15agent_scheduler9scheduler5testss_38error_resume_running_agent_is_rejected
FN:644,_RNvNtNtCs4ATkuxJMDK0_15agent_scheduler9scheduler5testss_38spawn_pause_resume_and_terminate_agent
FN:768,_RNvNtNtCs4ATkuxJMDK0_15agent_scheduler9scheduler5testss_39grant_capability_requires_allowed_token
FN:727,_RNvNtNtCs4ATkuxJMDK0_15agent_scheduler9scheduler5testss_39route_structured_intent_updates_context
FN:796,_RNvNtNtCs4ATkuxJMDK0_15agent_scheduler9scheduler5testss_40grant_capability_denies_unapproved_token
FN:863,_RNvNtNtCs4ATkuxJMDK0_15agent_scheduler9scheduler5testss_45property_terminate_removes_from_running_count
FN:834,_RNvNtNtCs4ATkuxJMDK0_15agent_scheduler9scheduler5testss_56property_running_plus_paused_never_exceeds_total_spawned
FN:815,_RNvNtNtCs4ATkuxJMDK0_15agent_scheduler9scheduler5testss_62grant_capability_rejects_mixed_allowed_and_denied_capabilities
FN:144,_RNvMNtCs4ATkuxJMDK0_15agent_scheduler9schedulerNtB2_14AgentScheduler10intent_bus
FN:235,_RNvMNtCs4ATkuxJMDK0_15agent_scheduler9schedulerNtB2_14AgentScheduler11pause_agent
FN:166,_RNvMNtCs4ATkuxJMDK0_15agent_scheduler9schedulerNtB2_14AgentScheduler11spawn_agent
FN:91,_RNvMNtCs4ATkuxJMDK0_15agent_scheduler9schedulerNtB2_14AgentScheduler11with_params
FN:256,_RNvMNtCs4ATkuxJMDK0_15agent_scheduler9schedulerNtB2_14AgentScheduler12resume_agent
FN:201,_RNvMNtCs4ATkuxJMDK0_15agent_scheduler9schedulerNtB2_14AgentScheduler12route_intent
FN:190,_RNvMNtCs4ATkuxJMDK0_15agent_scheduler9schedulerNtB2_14AgentScheduler13submit_intent
FN:150,_RNvMNtCs4ATkuxJMDK0_15agent_scheduler9schedulerNtB2_14AgentScheduler14context_memory
FN:277,_RNvMNtCs4ATkuxJMDK0_15agent_scheduler9schedulerNtB2_14AgentScheduler15terminate_agent
FN:364,_RNvMNtCs4ATkuxJMDK0_15agent_scheduler9schedulerNtB2_14AgentScheduler16grant_capability
FN:155,_RNvMNtCs4ATkuxJMDK0_15agent_scheduler9schedulerNtB2_14AgentScheduler17allocate_agent_id
FN:320,_RNvMNtCs4ATkuxJMDK0_15agent_scheduler9schedulerNtB2_14AgentScheduler18get_running_agents
FN:74,_RNvMNtCs4ATkuxJMDK0_15agent_scheduler9schedulerNtB2_14AgentScheduler3new
FN:311,_RNvMNtCs4ATkuxJMDK0_15agent_scheduler9schedulerNtB2_14AgentScheduler9get_agent
FN:915,_RNCNvNtNtCs4ATkuxJMDK0_15agent_scheduler9scheduler5testss_29error_pause_nonexistent_agent0B7_
FN:708,_RNCNvNtNtCs4ATkuxJMDK0_15agent_scheduler9scheduler5testss_29route_command_can_spawn_agent0B7_
FN:887,_RNCNvNtNtCs4ATkuxJMDK0_15agent_scheduler9scheduler5testss_32error_pause_already_paused_agent0B7_
FN:922,_RNCNvNtNtCs4ATkuxJMDK0_15agent_scheduler9scheduler5testss_36error_duplicate_agent_id_is_rejected0B7_
FN:682,_RNCNvNtNtCs4ATkuxJMDK0_15agent_scheduler9scheduler5testss_36submit_intent_reaches_bus_subscriber0B7_
FN:903,_RNCNvNtNtCs4ATkuxJMDK0_15agent_scheduler9scheduler5testss_38error_resume_running_agent_is_rejected0B7_
FN:644,_RNCNvNtNtCs4ATkuxJMDK0_15agent_scheduler9scheduler5testss_38spawn_pause_resume_and_terminate_agent0B7_
FN:768,_RNCNvNtNtCs4ATkuxJMDK0_15agent_scheduler9scheduler5testss_39grant_capability_requires_allowed_token0B7_
FN:727,_RNCNvNtNtCs4ATkuxJMDK0_15agent_scheduler9scheduler5testss_39route_structured_intent_updates_context0B7_
FN:796,_RNCNvNtNtCs4ATkuxJMDK0_15agent_scheduler9scheduler5testss_40grant_capability_denies_unapproved_token0B7_
FN:863,_RNCNvNtNtCs4ATkuxJMDK0_15agent_scheduler9scheduler5testss_45property_terminate_removes_from_running_count0B7_
FN:834,_RNCNvNtNtCs4ATkuxJMDK0_15agent_scheduler9scheduler5testss_56property_running_plus_paused_never_exceeds_total_spawned0B7_
FN:815,_RNCNvNtNtCs4ATkuxJMDK0_15agent_scheduler9scheduler5testss_62grant_capability_rejects_mixed_allowed_and_denied_capabilities0B7_
FN:333,_RINvMNtCsljdnD5lSkbI_15agent_scheduler9schedulerNtB3_14AgentScheduler13store_contextNtNtCs72dgD6uzVEf_5alloc6string6StringECsfbobxqkLRqr_12e2e_pipeline
FN:338,_RNCINvMNtCsljdnD5lSkbI_15agent_scheduler9schedulerNtB5_14AgentScheduler13store_contextNtNtCs72dgD6uzVEf_5alloc6string6StringE0CsfbobxqkLRqr_12e2e_pipeline
FN:295,_RNCNvMNtCsljdnD5lSkbI_15agent_scheduler9schedulerNtB4_14AgentScheduler10fail_agent0CsfbobxqkLRqr_12e2e_pipeline
FN:166,_RNCNvMNtCsljdnD5lSkbI_15agent_scheduler9schedulerNtB4_14AgentScheduler11spawn_agent0CsfbobxqkLRqr_12e2e_pipeline
FN:201,_RNCNvMNtCsljdnD5lSkbI_15agent_scheduler9schedulerNtB4_14AgentScheduler12route_intent0CsfbobxqkLRqr_12e2e_pipeline
FN:368,_RNCNvMNtCsljdnD5lSkbI_15agent_scheduler9schedulerNtB4_14AgentScheduler16grant_capability0CsfbobxqkLRqr_12e2e_pipeline
FN:155,_RNCNvMNtCsljdnD5lSkbI_15agent_scheduler9schedulerNtB4_14AgentScheduler17allocate_agent_id0CsfbobxqkLRqr_12e2e_pipeline
FN:311,_RNCNvMNtCsljdnD5lSkbI_15agent_scheduler9schedulerNtB4_14AgentScheduler9get_agent0CsfbobxqkLRqr_12e2e_pipeline
FN:324,_RNCNCNvMNtCsljdnD5lSkbI_15agent_scheduler9schedulerNtB6_14AgentScheduler18get_running_agents00CseVkF4WK7ytE_16kernel_companion
FN:320,_RNCNvMNtCsljdnD5lSkbI_15agent_scheduler9schedulerNtB4_14AgentScheduler18get_running_agents0CseVkF4WK7ytE_16kernel_companion
FN:295,_RNvMNtCsljdnD5lSkbI_15agent_scheduler9schedulerNtB2_14AgentScheduler10fail_agent
FN:144,_RNvMNtCsljdnD5lSkbI_15agent_scheduler9schedulerNtB2_14AgentScheduler10intent_bus
FN:134,_RNvMNtCsljdnD5lSkbI_15agent_scheduler9schedulerNtB2_14AgentScheduler10supervisor
FN:235,_RNvMNtCsljdnD5lSkbI_15agent_scheduler9schedulerNtB2_14AgentScheduler11pause_agent
FN:166,_RNvMNtCsljdnD5lSkbI_15agent_scheduler9schedulerNtB2_14AgentScheduler11spawn_agent
FN:91,_RNvMNtCsljdnD5lSkbI_15agent_scheduler9schedulerNtB2_14AgentScheduler11with_params
FN:256,_RNvMNtCsljdnD5lSkbI_15agent_scheduler9schedulerNtB2_14AgentScheduler12resume_agent
FN:201,_RNvMNtCsljdnD5lSkbI_15agent_scheduler9schedulerNtB2_14AgentScheduler12route_intent
FN:426,_RNvMNtCsljdnD5lSkbI_15agent_scheduler9schedulerNtB2_14AgentScheduler13dequeue_agent
FN:409,_RNvMNtCsljdnD5lSkbI_15agent_scheduler9schedulerNtB2_14AgentScheduler13enqueue_agent
FN:612,_RNvMNtCsljdnD5lSkbI_15agent_scheduler9schedulerNtB2_14AgentScheduler13run_queue_len
FN:190,_RNvMNtCsljdnD5lSkbI_15agent_scheduler9schedulerNtB2_14AgentScheduler13submit_intent
FN:150,_RNvMNtCsljdnD5lSkbI_15agent_scheduler9schedulerNtB2_14AgentScheduler14context_memory
FN:277,_RNvMNtCsljdnD5lSkbI_15agent_scheduler9schedulerNtB2_14AgentScheduler15terminate_agent
FN:364,_RNvMNtCsljdnD5lSkbI_15agent_scheduler9schedulerNtB2_14AgentScheduler16grant_capability
FN:155,_RNvMNtCsljdnD5lSkbI_15agent_scheduler9schedulerNtB2_14AgentScheduler17allocate_agent_id
FN:320,_RNvMNtCsljdnD5lSkbI_15agent_scheduler9schedulerNtB2_14AgentScheduler18get_running_agents
FN:582,_RNvMNtCsljdnD5lSkbI_15agent_scheduler9schedulerNtB2_14AgentScheduler18set_agent_priority
FN:547,_RNvMNtCsljdnD5lSkbI_15agent_scheduler9schedulerNtB2_14AgentScheduler19execute_agent_slice
FN:538,_RNvMNtCsljdnD5lSkbI_15agent_scheduler9schedulerNtB2_14AgentScheduler19stop_scheduler_loop
FN:618,_RNvMNtCsljdnD5lSkbI_15agent_scheduler9schedulerNtB2_14AgentScheduler20is_scheduler_running
FN:455,_RNvMNtCsljdnD5lSkbI_15agent_scheduler9schedulerNtB2_14AgentScheduler20start_scheduler_loop
FN:74,_RNvMNtCsljdnD5lSkbI_15agent_scheduler9schedulerNtB2_14AgentScheduler3new
FN:311,_RNvMNtCsljdnD5lSkbI_15agent_scheduler9schedulerNtB2_14AgentScheduler9get_agent
FN:139,_RNvMNtCsljdnD5lSkbI_15agent_scheduler9schedulerNtB2_14AgentScheduler9subscribe
FN:324,_RNCNCNvMNtCsljdnD5lSkbI_15agent_scheduler9schedulerNtB6_14AgentScheduler18get_running_agents00CsdFe3OVMkOQY_11integration
FN:235,_RNCNvMNtCsljdnD5lSkbI_15agent_scheduler9schedulerNtB4_14AgentScheduler11pause_agent0CsdFe3OVMkOQY_11integration
FN:166,_RNCNvMNtCsljdnD5lSkbI_15agent_scheduler9schedulerNtB4_14AgentScheduler11spawn_agent0CsdFe3OVMkOQY_11integration
FN:190,_RNCNvMNtCsljdnD5lSkbI_15agent_scheduler9schedulerNtB4_14AgentScheduler13submit_intent0CsdFe3OVMkOQY_11integration
FN:277,_RNCNvMNtCsljdnD5lSkbI_15agent_scheduler9schedulerNtB4_14AgentScheduler15terminate_agent0CsdFe3OVMkOQY_11integration
FN:368,_RNCNvMNtCsljdnD5lSkbI_15agent_scheduler9schedulerNtB4_14AgentScheduler16grant_capability0CsdFe3OVMkOQY_11integration
FN:155,_RNCNvMNtCsljdnD5lSkbI_15agent_scheduler9schedulerNtB4_14AgentScheduler17allocate_agent_id0CsdFe3OVMkOQY_11integration
FN:320,_RNCNvMNtCsljdnD5lSkbI_15agent_scheduler9schedulerNtB4_14AgentScheduler18get_running_agents0CsdFe3OVMkOQY_11integration
FN:311,_RNCNvMNtCsljdnD5lSkbI_15agent_scheduler9schedulerNtB4_14AgentScheduler9get_agent0CsdFe3OVMkOQY_11integration
FN:333,_RINvMNtCsljdnD5lSkbI_15agent_scheduler9schedulerNtB3_14AgentScheduler13store_contextNtNtCs72dgD6uzVEf_5alloc6string6StringECseLUTM0PnGP2_16kernel_companion
FN:338,_RNCINvMNtCsljdnD5lSkbI_15agent_scheduler9schedulerNtB5_14AgentScheduler13store_contextNtNtCs72dgD6uzVEf_5alloc6string6StringE0CseLUTM0PnGP2_16kernel_companion
FN:324,_RNCNCNvMNtCsljdnD5lSkbI_15agent_scheduler9schedulerNtB6_14AgentScheduler18get_running_agents00CseLUTM0PnGP2_16kernel_companion
FN:166,_RNCNvMNtCsljdnD5lSkbI_15agent_scheduler9schedulerNtB4_14AgentScheduler11spawn_agent0CseLUTM0PnGP2_16kernel_companion
FN:201,_RNCNvMNtCsljdnD5lSkbI_15agent_scheduler9schedulerNtB4_14AgentScheduler12route_intent0CseLUTM0PnGP2_16kernel_companion
FN:155,_RNCNvMNtCsljdnD5lSkbI_15agent_scheduler9schedulerNtB4_14AgentScheduler17allocate_agent_id0CseLUTM0PnGP2_16kernel_companion
FN:320,_RNCNvMNtCsljdnD5lSkbI_15agent_scheduler9schedulerNtB4_14AgentScheduler18get_running_agents0CseLUTM0PnGP2_16kernel_companion
FN:311,_RNCNvMNtCsljdnD5lSkbI_15agent_scheduler9schedulerNtB4_14AgentScheduler9get_agent0CseLUTM0PnGP2_16kernel_companion
FN:333,_RINvMNtCsljdnD5lSkbI_15agent_scheduler9schedulerNtB3_14AgentScheduler13store_contextNtNtCs72dgD6uzVEf_5alloc6string6StringECshG9qMLwq2HM_16kernel_companion
FN:338,_RNCINvMNtCsljdnD5lSkbI_15agent_scheduler9schedulerNtB5_14AgentScheduler13store_contextNtNtCs72dgD6uzVEf_5alloc6string6StringE0CshG9qMLwq2HM_16kernel_companion
FN:166,_RNCNvMNtCsljdnD5lSkbI_15agent_scheduler9schedulerNtB4_14AgentScheduler11spawn_agent0CshG9qMLwq2HM_16kernel_companion
FN:201,_RNCNvMNtCsljdnD5lSkbI_15agent_scheduler9schedulerNtB4_14AgentScheduler12route_intent0CshG9qMLwq2HM_16kernel_companion
FN:155,_RNCNvMNtCsljdnD5lSkbI_15agent_scheduler9schedulerNtB4_14AgentScheduler17allocate_agent_id0CshG9qMLwq2HM_16kernel_companion
FN:311,_RNCNvMNtCsljdnD5lSkbI_15agent_scheduler9schedulerNtB4_14AgentScheduler9get_agent0CshG9qMLwq2HM_16kernel_companion
FN:235,_RNCNvMNtCsljdnD5lSkbI_15agent_scheduler9schedulerNtB4_14AgentScheduler11pause_agent0CshJ7ADVmgvQo_11perf_budget
FN:166,_RNCNvMNtCsljdnD5lSkbI_15agent_scheduler9schedulerNtB4_14AgentScheduler11spawn_agent0CshJ7ADVmgvQo_11perf_budget
FN:256,_RNCNvMNtCsljdnD5lSkbI_15agent_scheduler9schedulerNtB4_14AgentScheduler12resume_agent0CshJ7ADVmgvQo_11perf_budget
FN:155,_RNCNvMNtCsljdnD5lSkbI_15agent_scheduler9schedulerNtB4_14AgentScheduler17allocate_agent_id0CshJ7ADVmgvQo_11perf_budget
FN:333,_RINvMNtCsljdnD5lSkbI_15agent_scheduler9schedulerNtB3_14AgentScheduler13store_contextNtNtCs72dgD6uzVEf_5alloc6string6StringECscMnwIHTVX4e_8pipeline
FN:333,_RINvMNtCsljdnD5lSkbI_15agent_scheduler9schedulerNtB3_14AgentScheduler13store_contextReECscMnwIHTVX4e_8pipeline
FN:338,_RNCINvMNtCsljdnD5lSkbI_15agent_scheduler9schedulerNtB5_14AgentScheduler13store_contextNtNtCs72dgD6uzVEf_5alloc6string6StringE0CscMnwIHTVX4e_8pipeline
FN:338,_RNCINvMNtCsljdnD5lSkbI_15agent_scheduler9schedulerNtB5_14AgentScheduler13store_contextReE0CscMnwIHTVX4e_8pipeline
FN:324,_RNCNCNvMNtCsljdnD5lSkbI_15agent_scheduler9schedulerNtB6_14AgentScheduler18get_running_agents00CscMnwIHTVX4e_8pipeline
FN:295,_RNCNvMNtCsljdnD5lSkbI_15agent_scheduler9schedulerNtB4_14AgentScheduler10fail_agent0CscMnwIHTVX4e_8pipeline
FN:235,_RNCNvMNtCsljdnD5lSkbI_15agent_scheduler9schedulerNtB4_14AgentScheduler11pause_agent0CscMnwIHTVX4e_8pipeline
FN:166,_RNCNvMNtCsljdnD5lSkbI_15agent_scheduler9schedulerNtB4_14AgentScheduler11spawn_agent0CscMnwIHTVX4e_8pipeline
FN:256,_RNCNvMNtCsljdnD5lSkbI_15agent_scheduler9schedulerNtB4_14AgentScheduler12resume_agent0CscMnwIHTVX4e_8pipeline
FN:201,_RNCNvMNtCsljdnD5lSkbI_15agent_scheduler9schedulerNtB4_14AgentScheduler12route_intent0CscMnwIHTVX4e_8pipeline
FN:190,_RNCNvMNtCsljdnD5lSkbI_15agent_scheduler9schedulerNtB4_14AgentScheduler13submit_intent0CscMnwIHTVX4e_8pipeline
FN:277,_RNCNvMNtCsljdnD5lSkbI_15agent_scheduler9schedulerNtB4_14AgentScheduler15terminate_agent0CscMnwIHTVX4e_8pipeline
FN:368,_RNCNvMNtCsljdnD5lSkbI_15agent_scheduler9schedulerNtB4_14AgentScheduler16grant_capability0CscMnwIHTVX4e_8pipeline
FN:155,_RNCNvMNtCsljdnD5lSkbI_15agent_scheduler9schedulerNtB4_14AgentScheduler17allocate_agent_id0CscMnwIHTVX4e_8pipeline
FN:320,_RNCNvMNtCsljdnD5lSkbI_15agent_scheduler9schedulerNtB4_14AgentScheduler18get_running_agents0CscMnwIHTVX4e_8pipeline
FN:311,_RNCNvMNtCsljdnD5lSkbI_15agent_scheduler9schedulerNtB4_14AgentScheduler9get_agent0CscMnwIHTVX4e_8pipeline
FNDA:1,_RINvMNtCs4ATkuxJMDK0_15agent_scheduler9schedulerNtB3_14AgentScheduler13store_contextNtNtCs72dgD6uzVEf_5alloc6string6StringEB5_
FNDA:1,_RNCINvMNtCs4ATkuxJMDK0_15agent_scheduler9schedulerNtB5_14AgentScheduler13store_contextNtNtCs72dgD6uzVEf_5alloc6string6StringE0B7_
FNDA:11,_RNCNCNvMNtCs4ATkuxJMDK0_15agent_scheduler9schedulerNtB6_14AgentScheduler18get_running_agents00B8_
FNDA:6,_RNCNvMNtCs4ATkuxJMDK0_15agent_scheduler9schedulerNtB4_14AgentScheduler11pause_agent0B6_
FNDA:19,_RNCNvMNtCs4ATkuxJMDK0_15agent_scheduler9schedulerNtB4_14AgentScheduler11spawn_agent0B6_
FNDA:2,_RNCNvMNtCs4ATkuxJMDK0_15agent_scheduler9schedulerNtB4_14AgentScheduler12resume_agent0B6_
FNDA:2,_RNCNvMNtCs4ATkuxJMDK0_15agent_scheduler9schedulerNtB4_14AgentScheduler12route_intent0B6_
FNDA:1,_RNCNvMNtCs4ATkuxJMDK0_15agent_scheduler9schedulerNtB4_14AgentScheduler13submit_intent0B6_
FNDA:5,_RNCNvMNtCs4ATkuxJMDK0_15agent_scheduler9schedulerNtB4_14AgentScheduler15terminate_agent0B6_
FNDA:3,_RNCNvMNtCs4ATkuxJMDK0_15agent_scheduler9schedulerNtB4_14AgentScheduler16grant_capability0B6_
FNDA:17,_RNCNvMNtCs4ATkuxJMDK0_15agent_scheduler9schedulerNtB4_14AgentScheduler17allocate_agent_id0B6_
FNDA:5,_RNCNvMNtCs4ATkuxJMDK0_15agent_scheduler9schedulerNtB4_14AgentScheduler18get_running_agents0B6_
FNDA:6,_RNCNvMNtCs4ATkuxJMDK0_15agent_scheduler9schedulerNtB4_14AgentScheduler9get_agent0B6_
FNDA:0,_RNCNCNCNCNvMNtCs4ATkuxJMDK0_15agent_scheduler9schedulerNtBa_14AgentScheduler20start_scheduler_loop000s0_0Bc_
FNDA:0,_RNCNCNCNvMNtCs4ATkuxJMDK0_15agent_scheduler9schedulerNtB8_14AgentScheduler20start_scheduler_loop000Ba_
FNDA:0,_RNCNvMNtCs4ATkuxJMDK0_15agent_scheduler9schedulerNtB4_14AgentScheduler10fail_agent0B6_
FNDA:0,_RNCNvMNtCs4ATkuxJMDK0_15agent_scheduler9schedulerNtB4_14AgentScheduler13dequeue_agent0B6_
FNDA:0,_RNCNvMNtCs4ATkuxJMDK0_15agent_scheduler9schedulerNtB4_14AgentScheduler13enqueue_agent0B6_
FNDA:0,_RNCNvMNtCs4ATkuxJMDK0_15agent_scheduler9schedulerNtB4_14AgentScheduler13run_queue_len0B6_
FNDA:0,_RNCNvMNtCs4ATkuxJMDK0_15agent_scheduler9schedulerNtB4_14AgentScheduler18set_agent_priority0B6_
FNDA:0,_RNCNvMNtCs4ATkuxJMDK0_15agent_scheduler9schedulerNtB4_14AgentScheduler19execute_agent_slice0B6_
FNDA:0,_RNCNvMNtCs4ATkuxJMDK0_15agent_scheduler9schedulerNtB4_14AgentScheduler19stop_scheduler_loop0B6_
FNDA:0,_RNCNvMNtCs4ATkuxJMDK0_15agent_scheduler9schedulerNtB4_14AgentScheduler20is_scheduler_running0B6_
FNDA:0,_RNCNvMNtCs4ATkuxJMDK0_15agent_scheduler9schedulerNtB4_14AgentScheduler20start_scheduler_loop0B6_
FNDA:0,_RNvMNtCs4ATkuxJMDK0_15agent_scheduler9schedulerNtB2_14AgentScheduler10fail_agent
FNDA:0,_RNvMNtCs4ATkuxJMDK0_15agent_scheduler9schedulerNtB2_14AgentScheduler10supervisor
FNDA:0,_RNvMNtCs4ATkuxJMDK0_15agent_scheduler9schedulerNtB2_14AgentScheduler13dequeue_agent
FNDA:0,_RNvMNtCs4ATkuxJMDK0_15agent_scheduler9schedulerNtB2_14AgentScheduler13enqueue_agent
FNDA:0,_RNvMNtCs4ATkuxJMDK0_15agent_scheduler9schedulerNtB2_14AgentScheduler13run_queue_len
FNDA:0,_RNvMNtCs4ATkuxJMDK0_15agent_scheduler9schedulerNtB2_14AgentScheduler18set_agent_priority
FNDA:0,_RNvMNtCs4ATkuxJMDK0_15agent_scheduler9schedulerNtB2_14AgentScheduler19execute_agent_slice
FNDA:0,_RNvMNtCs4ATkuxJMDK0_15agent_scheduler9schedulerNtB2_14AgentScheduler19stop_scheduler_loop
FNDA:0,_RNvMNtCs4ATkuxJMDK0_15agent_scheduler9schedulerNtB2_14AgentScheduler20is_scheduler_running
FNDA:0,_RNvMNtCs4ATkuxJMDK0_15agent_scheduler9schedulerNtB2_14AgentScheduler20start_scheduler_loop
FNDA:0,_RNvMNtCs4ATkuxJMDK0_15agent_scheduler9schedulerNtB2_14AgentScheduler9subscribe
FNDA:13,_RNvNtNtCs4ATkuxJMDK0_15agent_scheduler9scheduler5tests9scheduler
FNDA:1,_RNvNtNtCs4ATkuxJMDK0_15agent_scheduler9scheduler5testss_29error_pause_nonexistent_agent
FNDA:1,_RNvNtNtCs4ATkuxJMDK0_15agent_scheduler9scheduler5testss_29route_command_can_spawn_agent
FNDA:1,_RNvNtNtCs4ATkuxJMDK0_15agent_scheduler9scheduler5testss_32error_pause_already_paused_agent
FNDA:1,_RNvNtNtCs4ATkuxJMDK0_15agent_scheduler9scheduler5testss_36error_duplicate_agent_id_is_rejected
FNDA:1,_RNvNtNtCs4ATkuxJMDK0_15agent_scheduler9scheduler5testss_36submit_intent_reaches_bus_subscriber
FNDA:1,_RNvNtNtCs4ATkuxJMDK0_15agent_scheduler9scheduler5testss_38error_resume_running_agent_is_rejected
FNDA:1,_RNvNtNtCs4ATkuxJMDK0_15agent_scheduler9scheduler5testss_38spawn_pause_resume_and_terminate_agent
FNDA:1,_RNvNtNtCs4ATkuxJMDK0_15agent_scheduler9scheduler5testss_39grant_capability_requires_allowed_token
FNDA:1,_RNvNtNtCs4ATkuxJMDK0_15agent_scheduler9scheduler5testss_39route_structured_intent_updates_context
FNDA:1,_RNvNtNtCs4ATkuxJMDK0_15agent_scheduler9scheduler5testss_40grant_capability_denies_unapproved_token
FNDA:1,_RNvNtNtCs4ATkuxJMDK0_15agent_scheduler9scheduler5testss_45property_terminate_removes_from_running_count
FNDA:1,_RNvNtNtCs4ATkuxJMDK0_15agent_scheduler9scheduler5testss_56property_running_plus_paused_never_exceeds_total_spawned
FNDA:1,_RNvNtNtCs4ATkuxJMDK0_15agent_scheduler9scheduler5testss_62grant_capability_rejects_mixed_allowed_and_denied_capabilities
FNDA:1,_RNvMNtCs4ATkuxJMDK0_15agent_scheduler9schedulerNtB2_14AgentScheduler10intent_bus
FNDA:6,_RNvMNtCs4ATkuxJMDK0_15agent_scheduler9schedulerNtB2_14AgentScheduler11pause_agent
FNDA:19,_RNvMNtCs4ATkuxJMDK0_15agent_scheduler9schedulerNtB2_14AgentScheduler11spawn_agent
FNDA:13,_RNvMNtCs4ATkuxJMDK0_15agent_scheduler9schedulerNtB2_14AgentScheduler11with_params
FNDA:2,_RNvMNtCs4ATkuxJMDK0_15agent_scheduler9schedulerNtB2_14AgentScheduler12resume_agent
FNDA:2,_RNvMNtCs4ATkuxJMDK0_15agent_scheduler9schedulerNtB2_14AgentScheduler12route_intent
FNDA:1,_RNvMNtCs4ATkuxJMDK0_15agent_scheduler9schedulerNtB2_14AgentScheduler13submit_intent
FNDA:1,_RNvMNtCs4ATkuxJMDK0_15agent_scheduler9schedulerNtB2_14AgentScheduler14context_memory
FNDA:5,_RNvMNtCs4ATkuxJMDK0_15agent_scheduler9schedulerNtB2_14AgentScheduler15terminate_agent
FNDA:3,_RNvMNtCs4ATkuxJMDK0_15agent_scheduler9schedulerNtB2_14AgentScheduler16grant_capability
FNDA:17,_RNvMNtCs4ATkuxJMDK0_15agent_scheduler9schedulerNtB2_14AgentScheduler17allocate_agent_id
FNDA:5,_RNvMNtCs4ATkuxJMDK0_15agent_scheduler9schedulerNtB2_14AgentScheduler18get_running_agents
FNDA:13,_RNvMNtCs4ATkuxJMDK0_15agent_scheduler9schedulerNtB2_14AgentScheduler3new
FNDA:6,_RNvMNtCs4ATkuxJMDK0_15agent_scheduler9schedulerNtB2_14AgentScheduler9get_agent
FNDA:1,_RNCNvNtNtCs4ATkuxJMDK0_15agent_scheduler9scheduler5testss_29error_pause_nonexistent_agent0B7_
FNDA:1,_RNCNvNtNtCs4ATkuxJMDK0_15agent_scheduler9scheduler5testss_29route_command_can_spawn_agent0B7_
FNDA:1,_RNCNvNtNtCs4ATkuxJMDK0_15agent_scheduler9scheduler5testss_32error_pause_already_paused_agent0B7_
FNDA:1,_RNCNvNtNtCs4ATkuxJMDK0_15agent_scheduler9scheduler5testss_36error_duplicate_agent_id_is_rejected0B7_
FNDA:1,_RNCNvNtNtCs4ATkuxJMDK0_15agent_scheduler9scheduler5testss_36submit_intent_reaches_bus_subscriber0B7_
FNDA:1,_RNCNvNtNtCs4ATkuxJMDK0_15agent_scheduler9scheduler5testss_38error_resume_running_agent_is_rejected0B7_
FNDA:1,_RNCNvNtNtCs4ATkuxJMDK0_15agent_scheduler9scheduler5testss_38spawn_pause_resume_and_terminate_agent0B7_
FNDA:1,_RNCNvNtNtCs4ATkuxJMDK0_15agent_scheduler9scheduler5testss_39grant_capability_requires_allowed_token0B7_
FNDA:1,_RNCNvNtNtCs4ATkuxJMDK0_15agent_scheduler9scheduler5testss_39route_structured_intent_updates_context0B7_
FNDA:1,_RNCNvNtNtCs4ATkuxJMDK0_15agent_scheduler9scheduler5testss_40grant_capability_denies_unapproved_token0B7_
FNDA:1,_RNCNvNtNtCs4ATkuxJMDK0_15agent_scheduler9scheduler5testss_45property_terminate_removes_from_running_count0B7_
FNDA:1,_RNCNvNtNtCs4ATkuxJMDK0_15agent_scheduler9scheduler5testss_56property_running_plus_paused_never_exceeds_total_spawned0B7_
FNDA:1,_RNCNvNtNtCs4ATkuxJMDK0_15agent_scheduler9scheduler5testss_62grant_capability_rejects_mixed_allowed_and_denied_capabilities0B7_
FNDA:1,_RINvMNtCsljdnD5lSkbI_15agent_scheduler9schedulerNtB3_14AgentScheduler13store_contextNtNtCs72dgD6uzVEf_5alloc6string6StringECsfbobxqkLRqr_12e2e_pipeline
FNDA:1,_RNCINvMNtCsljdnD5lSkbI_15agent_scheduler9schedulerNtB5_14AgentScheduler13store_contextNtNtCs72dgD6uzVEf_5alloc6string6StringE0CsfbobxqkLRqr_12e2e_pipeline
FNDA:1,_RNCNvMNtCsljdnD5lSkbI_15agent_scheduler9schedulerNtB4_14AgentScheduler10fail_agent0CsfbobxqkLRqr_12e2e_pipeline
FNDA:5,_RNCNvMNtCsljdnD5lSkbI_15agent_scheduler9schedulerNtB4_14AgentScheduler11spawn_agent0CsfbobxqkLRqr_12e2e_pipeline
FNDA:3,_RNCNvMNtCsljdnD5lSkbI_15agent_scheduler9schedulerNtB4_14AgentScheduler12route_intent0CsfbobxqkLRqr_12e2e_pipeline
FNDA:1,_RNCNvMNtCsljdnD5lSkbI_15agent_scheduler9schedulerNtB4_14AgentScheduler16grant_capability0CsfbobxqkLRqr_12e2e_pipeline
FNDA:5,_RNCNvMNtCsljdnD5lSkbI_15agent_scheduler9schedulerNtB4_14AgentScheduler17allocate_agent_id0CsfbobxqkLRqr_12e2e_pipeline
FNDA:6,_RNCNvMNtCsljdnD5lSkbI_15agent_scheduler9schedulerNtB4_14AgentScheduler9get_agent0CsfbobxqkLRqr_12e2e_pipeline
FNDA:12,_RNCNCNvMNtCsljdnD5lSkbI_15agent_scheduler9schedulerNtB6_14AgentScheduler18get_running_agents00CseVkF4WK7ytE_16kernel_companion
FNDA:3,_RNCNvMNtCsljdnD5lSkbI_15agent_scheduler9schedulerNtB4_14AgentScheduler18get_running_agents0CseVkF4WK7ytE_16kernel_companion
FNDA:6,_RNvMNtCsljdnD5lSkbI_15agent_scheduler9schedulerNtB2_14AgentScheduler10fail_agent
FNDA:1,_RNvMNtCsljdnD5lSkbI_15agent_scheduler9schedulerNtB2_14AgentScheduler10intent_bus
FNDA:8,_RNvMNtCsljdnD5lSkbI_15agent_scheduler9schedulerNtB2_14AgentScheduler10supervisor
FNDA:1002,_RNvMNtCsljdnD5lSkbI_15agent_scheduler9schedulerNtB2_14AgentScheduler11pause_agent
FNDA:2136,_RNvMNtCsljdnD5lSkbI_15agent_scheduler9schedulerNtB2_14AgentScheduler11spawn_agent
FNDA:25,_RNvMNtCsljdnD5lSkbI_15agent_scheduler9schedulerNtB2_14AgentScheduler11with_params
FNDA:1001,_RNvMNtCsljdnD5lSkbI_15agent_scheduler9schedulerNtB2_14AgentScheduler12resume_agent
FNDA:9,_RNvMNtCsljdnD5lSkbI_15agent_scheduler9schedulerNtB2_14AgentScheduler12route_intent
FNDA:0,_RNvMNtCsljdnD5lSkbI_15agent_scheduler9schedulerNtB2_14AgentScheduler13dequeue_agent
FNDA:0,_RNvMNtCsljdnD5lSkbI_15agent_scheduler9schedulerNtB2_14AgentScheduler13enqueue_agent
FNDA:0,_RNvMNtCsljdnD5lSkbI_15agent_scheduler9schedulerNtB2_14AgentScheduler13run_queue_len
FNDA:2,_RNvMNtCsljdnD5lSkbI_15agent_scheduler9schedulerNtB2_14AgentScheduler13submit_intent
FNDA:1,_RNvMNtCsljdnD5lSkbI_15agent_scheduler9schedulerNtB2_14AgentScheduler14context_memory
FNDA:2,_RNvMNtCsljdnD5lSkbI_15agent_scheduler9schedulerNtB2_14AgentScheduler15terminate_agent
FNDA:3,_RNvMNtCsljdnD5lSkbI_15agent_scheduler9schedulerNtB2_14AgentScheduler16grant_capability
FNDA:2135,_RNvMNtCsljdnD5lSkbI_15agent_scheduler9schedulerNtB2_14AgentScheduler17allocate_agent_id
FNDA:9,_RNvMNtCsljdnD5lSkbI_15agent_scheduler9schedulerNtB2_14AgentScheduler18get_running_agents
FNDA:0,_RNvMNtCsljdnD5lSkbI_15agent_scheduler9schedulerNtB2_14AgentScheduler18set_agent_priority
FNDA:0,_RNvMNtCsljdnD5lSkbI_15agent_scheduler9schedulerNtB2_14AgentScheduler19execute_agent_slice
FNDA:0,_RNvMNtCsljdnD5lSkbI_15agent_scheduler9schedulerNtB2_14AgentScheduler19stop_scheduler_loop
FNDA:0,_RNvMNtCsljdnD5lSkbI_15agent_scheduler9schedulerNtB2_14AgentScheduler20is_scheduler_running
FNDA:0,_RNvMNtCsljdnD5lSkbI_15agent_scheduler9schedulerNtB2_14AgentScheduler20start_scheduler_loop
FNDA:22,_RNvMNtCsljdnD5lSkbI_15agent_scheduler9schedulerNtB2_14AgentScheduler3new
FNDA:121,_RNvMNtCsljdnD5lSkbI_15agent_scheduler9schedulerNtB2_14AgentScheduler9get_agent
FNDA:2,_RNvMNtCsljdnD5lSkbI_15agent_scheduler9schedulerNtB2_14AgentScheduler9subscribe
FNDA:100,_RNCNCNvMNtCsljdnD5lSkbI_15agent_scheduler9schedulerNtB6_14AgentScheduler18get_running_agents00CsdFe3OVMkOQY_11integration
FNDA:1,_RNCNvMNtCsljdnD5lSkbI_15agent_scheduler9schedulerNtB4_14AgentScheduler11pause_agent0CsdFe3OVMkOQY_11integration
FNDA:102,_RNCNvMNtCsljdnD5lSkbI_15agent_scheduler9schedulerNtB4_14AgentScheduler11spawn_agent0CsdFe3OVMkOQY_11integration
FNDA:1,_RNCNvMNtCsljdnD5lSkbI_15agent_scheduler9schedulerNtB4_14AgentScheduler13submit_intent0CsdFe3OVMkOQY_11integration
FNDA:1,_RNCNvMNtCsljdnD5lSkbI_15agent_scheduler9schedulerNtB4_14AgentScheduler15terminate_agent0CsdFe3OVMkOQY_11integration
FNDA:1,_RNCNvMNtCsljdnD5lSkbI_15agent_scheduler9schedulerNtB4_14AgentScheduler16grant_capability0CsdFe3OVMkOQY_11integration
FNDA:101,_RNCNvMNtCsljdnD5lSkbI_15agent_scheduler9schedulerNtB4_14AgentScheduler17allocate_agent_id0CsdFe3OVMkOQY_11integration
FNDA:1,_RNCNvMNtCsljdnD5lSkbI_15agent_scheduler9schedulerNtB4_14AgentScheduler18get_running_agents0CsdFe3OVMkOQY_11integration
FNDA:102,_RNCNvMNtCsljdnD5lSkbI_15agent_scheduler9schedulerNtB4_14AgentScheduler9get_agent0CsdFe3OVMkOQY_11integration
FNDA:0,_RINvMNtCsljdnD5lSkbI_15agent_scheduler9schedulerNtB3_14AgentScheduler13store_contextNtNtCs72dgD6uzVEf_5alloc6string6StringECseLUTM0PnGP2_16kernel_companion
FNDA:0,_RNCINvMNtCsljdnD5lSkbI_15agent_scheduler9schedulerNtB5_14AgentScheduler13store_contextNtNtCs72dgD6uzVEf_5alloc6string6StringE0CseLUTM0PnGP2_16kernel_companion
FNDA:1,_RNCNCNvMNtCsljdnD5lSkbI_15agent_scheduler9schedulerNtB6_14AgentScheduler18get_running_agents00CseLUTM0PnGP2_16kernel_companion
FNDA:1,_RNCNvMNtCsljdnD5lSkbI_15agent_scheduler9schedulerNtB4_14AgentScheduler11spawn_agent0CseLUTM0PnGP2_16kernel_companion
FNDA:4,_RNCNvMNtCsljdnD5lSkbI_15agent_scheduler9schedulerNtB4_14AgentScheduler12route_intent0CseLUTM0PnGP2_16kernel_companion
FNDA:1,_RNCNvMNtCsljdnD5lSkbI_15agent_scheduler9schedulerNtB4_14AgentScheduler17allocate_agent_id0CseLUTM0PnGP2_16kernel_companion
FNDA:1,_RNCNvMNtCsljdnD5lSkbI_15agent_scheduler9schedulerNtB4_14AgentScheduler18get_running_agents0CseLUTM0PnGP2_16kernel_companion
FNDA:1,_RNCNvMNtCsljdnD5lSkbI_15agent_scheduler9schedulerNtB4_14AgentScheduler9get_agent0CseLUTM0PnGP2_16kernel_companion
FNDA:0,_RINvMNtCsljdnD5lSkbI_15agent_scheduler9schedulerNtB3_14AgentScheduler13store_contextNtNtCs72dgD6uzVEf_5alloc6string6StringECshG9qMLwq2HM_16kernel_companion
FNDA:0,_RNCINvMNtCsljdnD5lSkbI_15agent_scheduler9schedulerNtB5_14AgentScheduler13store_contextNtNtCs72dgD6uzVEf_5alloc6string6StringE0CshG9qMLwq2HM_16kernel_companion
FNDA:0,_RNCNvMNtCsljdnD5lSkbI_15agent_scheduler9schedulerNtB4_14AgentScheduler11spawn_agent0CshG9qMLwq2HM_16kernel_companion
FNDA:0,_RNCNvMNtCsljdnD5lSkbI_15agent_scheduler9schedulerNtB4_14AgentScheduler12route_intent0CshG9qMLwq2HM_16kernel_companion
FNDA:0,_RNCNvMNtCsljdnD5lSkbI_15agent_scheduler9schedulerNtB4_14AgentScheduler17allocate_agent_id0CshG9qMLwq2HM_16kernel_companion
FNDA:0,_RNCNvMNtCsljdnD5lSkbI_15agent_scheduler9schedulerNtB4_14AgentScheduler9get_agent0CshG9qMLwq2HM_16kernel_companion
FNDA:1000,_RNCNvMNtCsljdnD5lSkbI_15agent_scheduler9schedulerNtB4_14AgentScheduler11pause_agent0CshJ7ADVmgvQo_11perf_budget
FNDA:2010,_RNCNvMNtCsljdnD5lSkbI_15agent_scheduler9schedulerNtB4_14AgentScheduler11spawn_agent0CshJ7ADVmgvQo_11perf_budget
FNDA:1000,_RNCNvMNtCsljdnD5lSkbI_15agent_scheduler9schedulerNtB4_14AgentScheduler12resume_agent0CshJ7ADVmgvQo_11perf_budget
FNDA:2010,_RNCNvMNtCsljdnD5lSkbI_15agent_scheduler9schedulerNtB4_14AgentScheduler17allocate_agent_id0CshJ7ADVmgvQo_11perf_budget
FNDA:1,_RINvMNtCsljdnD5lSkbI_15agent_scheduler9schedulerNtB3_14AgentScheduler13store_contextNtNtCs72dgD6uzVEf_5alloc6string6StringECscMnwIHTVX4e_8pipeline
FNDA:4,_RINvMNtCsljdnD5lSkbI_15agent_scheduler9schedulerNtB3_14AgentScheduler13store_contextReECscMnwIHTVX4e_8pipeline
FNDA:1,_RNCINvMNtCsljdnD5lSkbI_15agent_scheduler9schedulerNtB5_14AgentScheduler13store_contextNtNtCs72dgD6uzVEf_5alloc6string6StringE0CscMnwIHTVX4e_8pipeline
FNDA:4,_RNCINvMNtCsljdnD5lSkbI_15agent_scheduler9schedulerNtB5_14AgentScheduler13store_contextReE0CscMnwIHTVX4e_8pipeline
FNDA:31,_RNCNCNvMNtCsljdnD5lSkbI_15agent_scheduler9schedulerNtB6_14AgentScheduler18get_running_agents00CscMnwIHTVX4e_8pipeline
FNDA:5,_RNCNvMNtCsljdnD5lSkbI_15agent_scheduler9schedulerNtB4_14AgentScheduler10fail_agent0CscMnwIHTVX4e_8pipeline
FNDA:1,_RNCNvMNtCsljdnD5lSkbI_15agent_scheduler9schedulerNtB4_14AgentScheduler11pause_agent0CscMnwIHTVX4e_8pipeline
FNDA:18,_RNCNvMNtCsljdnD5lSkbI_15agent_scheduler9schedulerNtB4_14AgentScheduler11spawn_agent0CscMnwIHTVX4e_8pipeline
FNDA:1,_RNCNvMNtCsljdnD5lSkbI_15agent_scheduler9schedulerNtB4_14AgentScheduler12resume_agent0CscMnwIHTVX4e_8pipeline
FNDA:2,_RNCNvMNtCsljdnD5lSkbI_15agent_scheduler9schedulerNtB4_14AgentScheduler12route_intent0CscMnwIHTVX4e_8pipeline
FNDA:1,_RNCNvMNtCsljdnD5lSkbI_15agent_scheduler9schedulerNtB4_14AgentScheduler13submit_intent0CscMnwIHTVX4e_8pipeline
FNDA:1,_RNCNvMNtCsljdnD5lSkbI_15agent_scheduler9schedulerNtB4_14AgentScheduler15terminate_agent0CscMnwIHTVX4e_8pipeline
FNDA:1,_RNCNvMNtCsljdnD5lSkbI_15agent_scheduler9schedulerNtB4_14AgentScheduler16grant_capability0CscMnwIHTVX4e_8pipeline
FNDA:18,_RNCNvMNtCsljdnD5lSkbI_15agent_scheduler9schedulerNtB4_14AgentScheduler17allocate_agent_id0CscMnwIHTVX4e_8pipeline
FNDA:4,_RNCNvMNtCsljdnD5lSkbI_15agent_scheduler9schedulerNtB4_14AgentScheduler18get_running_agents0CscMnwIHTVX4e_8pipeline
FNDA:12,_RNCNvMNtCsljdnD5lSkbI_15agent_scheduler9schedulerNtB4_14AgentScheduler9get_agent0CscMnwIHTVX4e_8pipeline
FNF:76
FNH:58
DA:74,35
DA:75,35
DA:76,35
DA:77,35
DA:78,35
DA:79,35
DA:80,35
DA:81,35
DA:82,35
DA:87,35
DA:91,38
DA:92,38
DA:93,38
DA:94,38
DA:95,38
DA:96,38
DA:97,38
DA:98,38
DA:99,38
DA:100,38
DA:101,38
DA:102,38
DA:103,38
DA:105,38
DA:106,38
DA:107,38
DA:110,38
DA:111,38
DA:112,38
DA:113,38
DA:114,38
DA:115,38
DA:117,38
DA:118,38
DA:119,38
DA:120,38
DA:121,38
DA:122,38
DA:123,38
DA:124,38
DA:125,38
DA:126,38
DA:127,38
DA:128,38
DA:129,38
DA:130,38
DA:134,8
DA:135,8
DA:136,8
DA:139,2
DA:140,2
DA:141,2
DA:144,2
DA:145,2
DA:146,2
DA:150,2
DA:151,2
DA:152,2
DA:155,2152
DA:156,2152
DA:157,2152
DA:158,2152
DA:159,2152
DA:160,2152
DA:166,2155
DA:167,2155
DA:168,2152
DA:169,3
DA:171,2155
DA:172,2155
DA:173,1
DA:174,2154
DA:176,2154
DA:177,2154
DA:178,2154
DA:180,2154
DA:181,2154
DA:182,2154
DA:183,2154
DA:184,2155
DA:190,3
DA:191,3
DA:192,3
DA:193,3
DA:194,3
DA:195,3
DA:201,11
DA:202,11
DA:204,5
DA:205,5
DA:206,5
DA:207,5
DA:208,0
DA:211,3
DA:212,0
DA:214,3
DA:215,0
DA:218,3
DA:219,3
DA:220,3
DA:222,3
DA:223,3
DA:224,3
DA:226,3
DA:228,11
DA:229,11
DA:235,1008
DA:236,1008
DA:237,1008
DA:238,1008
DA:239,1008
DA:241,1007
DA:242,1
DA:243,1006
DA:245,1006
DA:246,1006
DA:247,1006
DA:248,1006
DA:249,1006
DA:250,1008
DA:256,1003
DA:257,1003
DA:258,1003
DA:259,1003
DA:260,1003
DA:262,1003
DA:263,1
DA:264,1002
DA:266,1002
DA:267,1002
DA:268,1002
DA:269,1002
DA:270,1002
DA:271,1003
DA:277,7
DA:278,7
DA:279,7
DA:280,7
DA:281,7
DA:282,7
DA:283,7
DA:284,7
DA:286,7
DA:287,7
DA:288,7
DA:289,7
DA:295,6
DA:296,6
DA:297,6
DA:298,6
DA:299,6
DA:300,6
DA:301,6
DA:302,6
DA:303,6
DA:304,6
DA:305,6
DA:311,127
DA:312,127
DA:313,127
DA:314,127
DA:315,127
DA:316,127
DA:317,127
DA:320,14
DA:321,14
DA:322,14
DA:323,14
DA:324,155
DA:325,14
DA:326,14
DA:327,14
DA:333,7
DA:334,7
DA:335,7
DA:336,7
DA:337,7
DA:338,7
DA:339,7
DA:341,7
DA:342,7
DA:343,0
DA:344,7
DA:347,7
DA:349,7
DA:350,7
DA:351,7
DA:352,7
DA:353,7
DA:354,7
DA:355,7
DA:356,7
DA:357,7
DA:358,7
DA:364,6
DA:365,6
DA:366,6
DA:367,6
DA:368,6
DA:370,6
DA:371,6
DA:372,0
DA:373,6
DA:376,6
DA:377,0
DA:378,6
DA:380,7
DA:381,7
DA:382,7
DA:383,7
DA:384,7
DA:385,7
DA:386,2
DA:387,5
DA:390,4
DA:391,4
DA:392,4
DA:394,4
DA:395,4
DA:396,4
DA:397,4
DA:398,4
DA:399,4
DA:400,4
DA:401,4
DA:402,4
DA:403,6
DA:409,0
DA:410,0
DA:411,0
DA:412,0
DA:413,0
DA:415,0
DA:416,0
DA:417,0
DA:419,0
DA:420,0
DA:421,0
DA:422,0
DA:423,0
DA:426,0
DA:427,0
DA:429,0
DA:430,0
DA:431,0
DA:432,0
DA:433,0
DA:434,0
DA:435,0
DA:436,0
DA:438,0
DA:439,0
DA:440,0
DA:441,0
DA:442,0
DA:455,0
DA:465,0
DA:468,0
DA:469,0
DA:471,0
DA:472,0
DA:473,0
DA:474,0
DA:475,0
DA:476,0
DA:478,0
DA:480,0
DA:481,0
DA:482,0
DA:485,0
DA:486,0
DA:487,0
DA:488,0
DA:491,0
DA:492,0
DA:493,0
DA:496,0
DA:497,0
DA:499,0
DA:500,0
DA:501,0
DA:502,0
DA:503,0
DA:504,0
DA:505,0
DA:508,0
DA:509,0
DA:510,0
DA:511,0
DA:512,0
DA:514,0
DA:515,0
DA:516,0
DA:518,0
DA:521,0
DA:524,0
DA:526,0
DA:530,0
DA:531,0
DA:535,0
DA:538,0
DA:539,0
DA:540,0
DA:541,0
DA:542,0
DA:543,0
DA:544,0
DA:547,0
DA:548,0
DA:549,0
DA:550,0
DA:551,0
DA:552,0
DA:553,0
DA:554,0
DA:563,0
DA:566,0
DA:567,0
DA:568,0
DA:569,0
DA:570,0
DA:571,0
DA:572,0
DA:573,0
DA:574,0
DA:575,0
DA:576,0
DA:582,0
DA:583,0
DA:584,0
DA:585,0
DA:586,0
DA:587,0
DA:588,0
DA:589,0
DA:590,0
DA:592,0
DA:593,0
DA:596,0
DA:597,0
DA:598,0
DA:599,0
DA:600,0
DA:601,0
DA:603,0
DA:604,0
DA:605,0
DA:607,0
DA:608,0
DA:609,0
DA:612,0
DA:613,0
DA:614,0
DA:615,0
DA:618,0
DA:619,0
DA:620,0
DA:621,0
DA:635,13
DA:636,13
DA:637,13
DA:638,13
DA:639,13
DA:641,13
DA:644,1
DA:645,1
DA:646,1
DA:647,1
DA:648,1
DA:649,1
DA:651,1
DA:653,1
DA:654,1
DA:655,1
DA:656,1
DA:657,1
DA:658,1
DA:662,1
DA:663,1
DA:664,1
DA:665,1
DA:666,1
DA:667,1
DA:671,1
DA:672,1
DA:673,1
DA:674,1
DA:675,1
DA:676,1
DA:677,1
DA:678,1
DA:679,1
DA:682,1
DA:683,1
DA:684,1
DA:685,1
DA:687,1
DA:689,1
DA:693,1
DA:694,1
DA:695,1
DA:696,1
DA:698,1
DA:699,1
DA:700,1
DA:701,1
DA:703,1
DA:704,1
DA:705,1
DA:708,1
DA:709,1
DA:710,1
DA:712,1
DA:714,1
DA:718,1
DA:719,1
DA:720,1
DA:721,1
DA:723,1
DA:724,1
DA:727,1
DA:728,1
DA:729,1
DA:730,1
DA:731,1
DA:732,1
DA:734,1
DA:736,1
DA:738,1
DA:741,1
DA:742,1
DA:743,1
DA:744,1
DA:745,1
DA:746,1
DA:748,1
DA:749,1
DA:750,1
DA:751,1
DA:753,1
DA:754,1
DA:755,1
DA:756,1
DA:757,1
DA:758,1
DA:759,1
DA:760,1
DA:761,1
DA:762,1
DA:763,1
DA:764,1
DA:765,1
DA:768,1
DA:769,1
DA:770,1
DA:771,1
DA:772,1
DA:773,1
DA:774,1
DA:776,1
DA:777,1
DA:778,1
DA:779,1
DA:782,1
DA:783,1
DA:784,1
DA:785,1
DA:787,1
DA:788,1
DA:789,1
DA:790,1
DA:791,1
DA:792,1
DA:793,1
DA:796,1
DA:797,1
DA:798,1
DA:799,1
DA:800,1
DA:801,1
DA:802,1
DA:804,1
DA:805,1
DA:806,1
DA:807,1
DA:810,1
DA:811,1
DA:812,1
DA:815,1
DA:816,1
DA:817,1
DA:818,1
DA:819,1
DA:820,1
DA:821,1
DA:823,1
DA:824,1
DA:825,1
DA:826,1
DA:829,1
DA:830,1
DA:831,1
DA:834,1
DA:835,1
DA:836,1
DA:838,1
DA:839,1
DA:840,5
DA:841,5
DA:842,5
DA:843,5
DA:844,5
DA:847,2
DA:848,2
DA:849,2
DA:850,2
DA:851,2
DA:854,1
DA:856,1
DA:857,1
DA:858,1
DA:859,1
DA:860,1
DA:863,1
DA:864,1
DA:865,1
DA:866,1
DA:867,4
DA:868,4
DA:869,4
DA:870,4
DA:871,4
DA:874,1
DA:876,4
DA:877,4
DA:878,4
DA:879,4
DA:880,4
DA:881,1
DA:882,1
DA:883,1
DA:884,1
DA:887,1
DA:888,1
DA:889,1
DA:890,1
DA:891,1
DA:892,1
DA:894,1
DA:895,1
DA:896,1
DA:897,1
DA:898,1
DA:899,1
DA:900,1
DA:903,1
DA:904,1
DA:905,1
DA:906,1
DA:907,1
DA:908,1
DA:910,1
DA:911,1
DA:912,1
DA:915,1
DA:916,1
DA:917,1
DA:918,1
DA:919,1
DA:922,1
DA:923,1
DA:924,1
DA:925,1
DA:926,1
DA:927,1
DA:928,1
DA:929,1
DA:931,1
DA:932,1
DA:933,1
BRF:0
BRH:0
LF:640
LH:493
end_of_record
SF:/home/lokis/Documents/AI-Native-Kernel/crates/agent-scheduler/src/supervisor.rs
FN:35,_RNvMNtCs4ATkuxJMDK0_15agent_scheduler10supervisorNtB2_17SupervisorService13monitor_agent
FN:69,_RNvMNtCs4ATkuxJMDK0_15agent_scheduler10supervisorNtB2_17SupervisorService13restart_agent
FN:98,_RNvMNtCs4ATkuxJMDK0_15agent_scheduler10supervisorNtB2_17SupervisorService21reset_restart_counter
FN:106,_RNvMNtCs4ATkuxJMDK0_15agent_scheduler10supervisorNtB2_17SupervisorService21start_monitoring_loop
FN:112,_RNvMNtCs4ATkuxJMDK0_15agent_scheduler10supervisorNtB2_17SupervisorService27start_monitoring_loop_until
FN:21,_RNvMNtCs4ATkuxJMDK0_15agent_scheduler10supervisorNtB2_17SupervisorService3new
FN:135,_RNCNCNvMNtCs4ATkuxJMDK0_15agent_scheduler10supervisorNtB6_17SupervisorService27start_monitoring_loop_until00B8_
FN:35,_RNCNvMNtCs4ATkuxJMDK0_15agent_scheduler10supervisorNtB4_17SupervisorService13monitor_agent0B6_
FN:69,_RNCNvMNtCs4ATkuxJMDK0_15agent_scheduler10supervisorNtB4_17SupervisorService13restart_agent0B6_
FN:98,_RNCNvMNtCs4ATkuxJMDK0_15agent_scheduler10supervisorNtB4_17SupervisorService21reset_restart_counter0B6_
FN:106,_RNCNvMNtCs4ATkuxJMDK0_15agent_scheduler10supervisorNtB4_17SupervisorService21start_monitoring_loop0B6_
FN:112,_RNCNvMNtCs4ATkuxJMDK0_15agent_scheduler10supervisorNtB4_17SupervisorService27start_monitoring_loop_until0B6_
FN:215,_RNCNCNvNtNtCs4ATkuxJMDK0_15agent_scheduler10supervisor5testss_36test_supervisor_loop_fault_injection00B9_
FN:204,_RNCNvNtNtCs4ATkuxJMDK0_15agent_scheduler10supervisor5testss_36test_supervisor_loop_fault_injection0B7_
FN:155,_RNCNvNtNtCs4ATkuxJMDK0_15agent_scheduler10supervisor5testss_37test_supervisor_restarts_failed_agent0B7_
FN:179,_RNCNvNtNtCs4ATkuxJMDK0_15agent_scheduler10supervisor5testss_43test_supervisor_gives_up_after_max_restarts0B7_
FN:204,_RNvNtNtCs4ATkuxJMDK0_15agent_scheduler10supervisor5testss_36test_supervisor_loop_fault_injection
FN:155,_RNvNtNtCs4ATkuxJMDK0_15agent_scheduler10supervisor5testss_37test_supervisor_restarts_failed_agent
FN:179,_RNvNtNtCs4ATkuxJMDK0_15agent_scheduler10supervisor5testss_43test_supervisor_gives_up_after_max_restarts
FN:35,_RNCNvMNtCsljdnD5lSkbI_15agent_scheduler10supervisorNtB4_17SupervisorService13monitor_agent0Cs56hN5CfNqOK_5chaos
FN:69,_RNCNvMNtCsljdnD5lSkbI_15agent_scheduler10supervisorNtB4_17SupervisorService13restart_agent0Cs56hN5CfNqOK_5chaos
FN:98,_RNCNvMNtCsljdnD5lSkbI_15agent_scheduler10supervisorNtB4_17SupervisorService21reset_restart_counter0Cs56hN5CfNqOK_5chaos
FN:35,_RNvMNtCsljdnD5lSkbI_15agent_scheduler10supervisorNtB2_17SupervisorService13monitor_agent
FN:69,_RNvMNtCsljdnD5lSkbI_15agent_scheduler10supervisorNtB2_17SupervisorService13restart_agent
FN:98,_RNvMNtCsljdnD5lSkbI_15agent_scheduler10supervisorNtB2_17SupervisorService21reset_restart_counter
FN:106,_RNvMNtCsljdnD5lSkbI_15agent_scheduler10supervisorNtB2_17SupervisorService21start_monitoring_loop
FN:112,_RNvMNtCsljdnD5lSkbI_15agent_scheduler10supervisorNtB2_17SupervisorService27start_monitoring_loop_until
FN:21,_RNvMNtCsljdnD5lSkbI_15agent_scheduler10supervisorNtB2_17SupervisorService3new
FN:35,_RNCNvMNtCsljdnD5lSkbI_15agent_scheduler10supervisorNtB4_17SupervisorService13monitor_agent0CsfbobxqkLRqr_12e2e_pipeline
FN:69,_RNCNvMNtCsljdnD5lSkbI_15agent_scheduler10supervisorNtB4_17SupervisorService13restart_agent0CsfbobxqkLRqr_12e2e_pipeline
FN:98,_RNCNvMNtCsljdnD5lSkbI_15agent_scheduler10supervisorNtB4_17SupervisorService21reset_restart_counter0CsfbobxqkLRqr_12e2e_pipeline
FN:135,_RNCNCNvMNtCsljdnD5lSkbI_15agent_scheduler10supervisorNtB6_17SupervisorService27start_monitoring_loop_until00CseLUTM0PnGP2_16kernel_companion
FN:35,_RNCNvMNtCsljdnD5lSkbI_15agent_scheduler10supervisorNtB4_17SupervisorService13monitor_agent0CseLUTM0PnGP2_16kernel_companion
FN:69,_RNCNvMNtCsljdnD5lSkbI_15agent_scheduler10supervisorNtB4_17SupervisorService13restart_agent0CseLUTM0PnGP2_16kernel_companion
FN:98,_RNCNvMNtCsljdnD5lSkbI_15agent_scheduler10supervisorNtB4_17SupervisorService21reset_restart_counter0CseLUTM0PnGP2_16kernel_companion
FN:112,_RNCNvMNtCsljdnD5lSkbI_15agent_scheduler10supervisorNtB4_17SupervisorService27start_monitoring_loop_until0CseLUTM0PnGP2_16kernel_companion
FN:135,_RNCNCNvMNtCsljdnD5lSkbI_15agent_scheduler10supervisorNtB6_17SupervisorService27start_monitoring_loop_until00CshG9qMLwq2HM_16kernel_companion
FN:35,_RNCNvMNtCsljdnD5lSkbI_15agent_scheduler10supervisorNtB4_17SupervisorService13monitor_agent0CshG9qMLwq2HM_16kernel_companion
FN:69,_RNCNvMNtCsljdnD5lSkbI_15agent_scheduler10supervisorNtB4_17SupervisorService13restart_agent0CshG9qMLwq2HM_16kernel_companion
FN:98,_RNCNvMNtCsljdnD5lSkbI_15agent_scheduler10supervisorNtB4_17SupervisorService21reset_restart_counter0CshG9qMLwq2HM_16kernel_companion
FN:112,_RNCNvMNtCsljdnD5lSkbI_15agent_scheduler10supervisorNtB4_17SupervisorService27start_monitoring_loop_until0CshG9qMLwq2HM_16kernel_companion
FN:35,_RNCNvMNtCsljdnD5lSkbI_15agent_scheduler10supervisorNtB4_17SupervisorService13monitor_agent0CscMnwIHTVX4e_8pipeline
FN:69,_RNCNvMNtCsljdnD5lSkbI_15agent_scheduler10supervisorNtB4_17SupervisorService13restart_agent0CscMnwIHTVX4e_8pipeline
FN:98,_RNCNvMNtCsljdnD5lSkbI_15agent_scheduler10supervisorNtB4_17SupervisorService21reset_restart_counter0CscMnwIHTVX4e_8pipeline
FNDA:6,_RNvMNtCs4ATkuxJMDK0_15agent_scheduler10supervisorNtB2_17SupervisorService13monitor_agent
FNDA:2,_RNvMNtCs4ATkuxJMDK0_15agent_scheduler10supervisorNtB2_17SupervisorService13restart_agent
FNDA:1,_RNvMNtCs4ATkuxJMDK0_15agent_scheduler10supervisorNtB2_17SupervisorService21reset_restart_counter
FNDA:1,_RNvMNtCs4ATkuxJMDK0_15agent_scheduler10supervisorNtB2_17SupervisorService21start_monitoring_loop
FNDA:1,_RNvMNtCs4ATkuxJMDK0_15agent_scheduler10supervisorNtB2_17SupervisorService27start_monitoring_loop_until
FNDA:16,_RNvMNtCs4ATkuxJMDK0_15agent_scheduler10supervisorNtB2_17SupervisorService3new
FNDA:4,_RNCNCNvMNtCs4ATkuxJMDK0_15agent_scheduler10supervisorNtB6_17SupervisorService27start_monitoring_loop_until00B8_
FNDA:6,_RNCNvMNtCs4ATkuxJMDK0_15agent_scheduler10supervisorNtB4_17SupervisorService13monitor_agent0B6_
FNDA:2,_RNCNvMNtCs4ATkuxJMDK0_15agent_scheduler10supervisorNtB4_17SupervisorService13restart_agent0B6_
FNDA:1,_RNCNvMNtCs4ATkuxJMDK0_15agent_scheduler10supervisorNtB4_17SupervisorService21reset_restart_counter0B6_
FNDA:1,_RNCNvMNtCs4ATkuxJMDK0_15agent_scheduler10supervisorNtB4_17SupervisorService21start_monitoring_loop0B6_
FNDA:1,_RNCNvMNtCs4ATkuxJMDK0_15agent_scheduler10supervisorNtB4_17SupervisorService27start_monitoring_loop_until0B6_
FNDA:1,_RNCNCNvNtNtCs4ATkuxJMDK0_15agent_scheduler10supervisor5testss_36test_supervisor_loop_fault_injection00B9_
FNDA:1,_RNCNvNtNtCs4ATkuxJMDK0_15agent_scheduler10supervisor5testss_36test_supervisor_loop_fault_injection0B7_
FNDA:1,_RNCNvNtNtCs4ATkuxJMDK0_15agent_scheduler10supervisor5testss_37test_supervisor_restarts_failed_agent0B7_
FNDA:1,_RNCNvNtNtCs4ATkuxJMDK0_15agent_scheduler10supervisor5testss_43test_supervisor_gives_up_after_max_restarts0B7_
FNDA:1,_RNvNtNtCs4ATkuxJMDK0_15agent_scheduler10supervisor5testss_36test_supervisor_loop_fault_injection
FNDA:1,_RNvNtNtCs4ATkuxJMDK0_15agent_scheduler10supervisor5testss_37test_supervisor_restarts_failed_agent
FNDA:1,_RNvNtNtCs4ATkuxJMDK0_15agent_scheduler10supervisor5testss_43test_supervisor_gives_up_after_max_restarts
FNDA:1000,_RNCNvMNtCsljdnD5lSkbI_15agent_scheduler10supervisorNtB4_17SupervisorService13monitor_agent0Cs56hN5CfNqOK_5chaos
FNDA:1000,_RNCNvMNtCsljdnD5lSkbI_15agent_scheduler10supervisorNtB4_17SupervisorService13restart_agent0Cs56hN5CfNqOK_5chaos
FNDA:0,_RNCNvMNtCsljdnD5lSkbI_15agent_scheduler10supervisorNtB4_17SupervisorService21reset_restart_counter0Cs56hN5CfNqOK_5chaos
FNDA:1007,_RNvMNtCsljdnD5lSkbI_15agent_scheduler10supervisorNtB2_17SupervisorService13monitor_agent
FNDA:1006,_RNvMNtCsljdnD5lSkbI_15agent_scheduler10supervisorNtB2_17SupervisorService13restart_agent
FNDA:0,_RNvMNtCsljdnD5lSkbI_15agent_scheduler10supervisorNtB2_17SupervisorService21reset_restart_counter
FNDA:0,_RNvMNtCsljdnD5lSkbI_15agent_scheduler10supervisorNtB2_17SupervisorService21start_monitoring_loop
FNDA:2,_RNvMNtCsljdnD5lSkbI_15agent_scheduler10supervisorNtB2_17SupervisorService27start_monitoring_loop_until
FNDA:26,_RNvMNtCsljdnD5lSkbI_15agent_scheduler10supervisorNtB2_17SupervisorService3new
FNDA:1,_RNCNvMNtCsljdnD5lSkbI_15agent_scheduler10supervisorNtB4_17SupervisorService13monitor_agent0CsfbobxqkLRqr_12e2e_pipeline
FNDA:1,_RNCNvMNtCsljdnD5lSkbI_15agent_scheduler10supervisorNtB4_17SupervisorService13restart_agent0CsfbobxqkLRqr_12e2e_pipeline
FNDA:0,_RNCNvMNtCsljdnD5lSkbI_15agent_scheduler10supervisorNtB4_17SupervisorService21reset_restart_counter0CsfbobxqkLRqr_12e2e_pipeline
FNDA:1,_RNCNCNvMNtCsljdnD5lSkbI_15agent_scheduler10supervisorNtB6_17SupervisorService27start_monitoring_loop_until00CseLUTM0PnGP2_16kernel_companion
FNDA:1,_RNCNvMNtCsljdnD5lSkbI_15agent_scheduler10supervisorNtB4_17SupervisorService13monitor_agent0CseLUTM0PnGP2_16kernel_companion
FNDA:0,_RNCNvMNtCsljdnD5lSkbI_15agent_scheduler10supervisorNtB4_17SupervisorService13restart_agent0CseLUTM0PnGP2_16kernel_companion
FNDA:0,_RNCNvMNtCsljdnD5lSkbI_15agent_scheduler10supervisorNtB4_17SupervisorService21reset_restart_counter0CseLUTM0PnGP2_16kernel_companion
FNDA:2,_RNCNvMNtCsljdnD5lSkbI_15agent_scheduler10supervisorNtB4_17SupervisorService27start_monitoring_loop_until0CseLUTM0PnGP2_16kernel_companion
FNDA:0,_RNCNCNvMNtCsljdnD5lSkbI_15agent_scheduler10supervisorNtB6_17SupervisorService27start_monitoring_loop_until00CshG9qMLwq2HM_16kernel_companion
FNDA:0,_RNCNvMNtCsljdnD5lSkbI_15agent_scheduler10supervisorNtB4_17SupervisorService13monitor_agent0CshG9qMLwq2HM_16kernel_companion
FNDA:0,_RNCNvMNtCsljdnD5lSkbI_15agent_scheduler10supervisorNtB4_17SupervisorService13restart_agent0CshG9qMLwq2HM_16kernel_companion
FNDA:0,_RNCNvMNtCsljdnD5lSkbI_15agent_scheduler10supervisorNtB4_17SupervisorService21reset_restart_counter0CshG9qMLwq2HM_16kernel_companion
FNDA:0,_RNCNvMNtCsljdnD5lSkbI_15agent_scheduler10supervisorNtB4_17SupervisorService27start_monitoring_loop_until0CshG9qMLwq2HM_16kernel_companion
FNDA:5,_RNCNvMNtCsljdnD5lSkbI_15agent_scheduler10supervisorNtB4_17SupervisorService13monitor_agent0CscMnwIHTVX4e_8pipeline
FNDA:5,_RNCNvMNtCsljdnD5lSkbI_15agent_scheduler10supervisorNtB4_17SupervisorService13restart_agent0CscMnwIHTVX4e_8pipeline
FNDA:0,_RNCNvMNtCsljdnD5lSkbI_15agent_scheduler10supervisorNtB4_17SupervisorService21reset_restart_counter0CscMnwIHTVX4e_8pipeline
FNF:19
FNH:19
DA:21,42
DA:22,42
DA:23,42
DA:24,42
DA:25,42
DA:26,42
DA:27,42
DA:28,42
DA:29,42
DA:30,42
DA:31,42
DA:35,1013
DA:36,1013
DA:40,1009
DA:42,1008
DA:43,1008
DA:44,1008
DA:45,1008
DA:48,1008
DA:49,1008
DA:52,1
DA:58,4
DA:59,1
DA:60,3
DA:61,4
DA:64,0
DA:66,1013
DA:69,1008
DA:72,1008
DA:73,1008
DA:74,1008
DA:75,1008
DA:76,1008
DA:77,1008
DA:78,0
DA:83,1008
DA:87,1008
DA:88,1008
DA:89,1008
DA:90,1008
DA:92,0
DA:95,1008
DA:98,1
DA:99,1
DA:100,1
DA:101,1
DA:102,1
DA:103,1
DA:106,1
DA:107,1
DA:108,1
DA:109,0
DA:112,3
DA:113,3
DA:116,10
DA:117,10
DA:118,10
DA:119,2
DA:120,2
DA:121,0
DA:126,7
DA:127,7
DA:128,7
DA:132,7
DA:133,7
DA:134,5
DA:135,5
DA:136,5
DA:137,5
DA:140,12
DA:142,2
DA:155,1
DA:156,1
DA:158,1
DA:159,1
DA:160,1
DA:162,1
DA:165,1
DA:166,1
DA:167,1
DA:170,1
DA:171,1
DA:173,1
DA:174,1
DA:175,1
DA:176,1
DA:179,1
DA:180,1
DA:182,1
DA:183,1
DA:184,1
DA:185,1
DA:187,1
DA:190,1
DA:191,1
DA:192,1
DA:195,1
DA:196,1
DA:198,1
DA:199,1
DA:200,1
DA:201,1
DA:204,1
DA:205,1
DA:207,1
DA:208,1
DA:209,1
DA:211,1
DA:214,1
DA:215,1
DA:216,1
DA:217,0
DA:220,1
DA:224,1
DA:225,1
DA:226,1
DA:227,1
DA:231,1
DA:234,1
DA:235,1
DA:236,1
DA:237,1
DA:238,1
DA:239,1
DA:240,1
DA:241,1
DA:242,1
BRF:0
BRH:0
LF:143
LH:137
end_of_record
SF:/home/lokis/Documents/AI-Native-Kernel/crates/capability-security/src/audit.rs
FN:112,_RNvMNtCs2FiXohbFBIi_19capability_security5auditNtB2_10AuditEntry14process_killed
FN:90,_RNvMNtCs2FiXohbFBIi_19capability_security5auditNtB2_10AuditEntry14syscall_denied
FN:101,_RNvMNtCs2FiXohbFBIi_19capability_security5auditNtB2_10AuditEntry19process_quarantined
FN:47,_RNvMNtCs2FiXohbFBIi_19capability_security5auditNtB2_10AuditEntry3new
FN:78,_RNvMNtCs2FiXohbFBIi_19capability_security5auditNtB2_10AuditEntry6denied
FN:66,_RNvMNtCs2FiXohbFBIi_19capability_security5auditNtB2_10AuditEntry6issued
FN:72,_RNvMNtCs2FiXohbFBIi_19capability_security5auditNtB2_10AuditEntry7allowed
FN:84,_RNvMNtCs2FiXohbFBIi_19capability_security5auditNtB2_10AuditEntry7revoked
FN:132,_RNvMs_NtCs2FiXohbFBIi_19capability_security5auditNtB4_11AuditLogger3new
FN:137,_RNvMs_NtCs2FiXohbFBIi_19capability_security5auditNtB4_11AuditLogger6record
FN:152,_RNvMs_NtCs2FiXohbFBIi_19capability_security5auditNtB4_11AuditLogger7entries
FN:168,_RNvXs0_NtCs2FiXohbFBIi_19capability_security5auditNtB5_11AuditLoggerNtNtCs13ARFDxRLcQ_4core7default7Default7default
FN:47,_RNvMNtCsbxLU5GFwH79_19capability_security5auditNtB2_10AuditEntry3new
FN:78,_RNvMNtCsbxLU5GFwH79_19capability_security5auditNtB2_10AuditEntry6denied
FN:66,_RNvMNtCsbxLU5GFwH79_19capability_security5auditNtB2_10AuditEntry6issued
FN:72,_RNvMNtCsbxLU5GFwH79_19capability_security5auditNtB2_10AuditEntry7allowed
FN:84,_RNvMNtCsbxLU5GFwH79_19capability_security5auditNtB2_10AuditEntry7revoked
FN:132,_RNvMs_NtCsbxLU5GFwH79_19capability_security5auditNtB4_11AuditLogger3new
FN:137,_RNvMs_NtCsbxLU5GFwH79_19capability_security5auditNtB4_11AuditLogger6record
FN:152,_RNvMs_NtCsbxLU5GFwH79_19capability_security5auditNtB4_11AuditLogger7entries
FN:177,_RNvNtNtCsbxLU5GFwH79_19capability_security5audit5tests13test_log_path
FN:204,_RNvNtNtCsbxLU5GFwH79_19capability_security5audit5testss_31entries_skip_invalid_json_lines
FN:184,_RNvNtNtCsbxLU5GFwH79_19capability_security5audit5testss_36record_and_reload_entries_round_trip
FN:222,_RNvNtNtCsbxLU5GFwH79_19capability_security5audit5testss_40helper_constructors_use_expected_actions
FN:112,_RNvMNtCsbxLU5GFwH79_19capability_security5auditNtB2_10AuditEntry14process_killed
FN:90,_RNvMNtCsbxLU5GFwH79_19capability_security5auditNtB2_10AuditEntry14syscall_denied
FN:101,_RNvMNtCsbxLU5GFwH79_19capability_security5auditNtB2_10AuditEntry19process_quarantined
FN:168,_RNvXs0_NtCsbxLU5GFwH79_19capability_security5auditNtB5_11AuditLoggerNtNtCs13ARFDxRLcQ_4core7default7Default7default
FNDA:0,_RNvMNtCs2FiXohbFBIi_19capability_security5auditNtB2_10AuditEntry14process_killed
FNDA:0,_RNvMNtCs2FiXohbFBIi_19capability_security5auditNtB2_10AuditEntry14syscall_denied
FNDA:0,_RNvMNtCs2FiXohbFBIi_19capability_security5auditNtB2_10AuditEntry19process_quarantined
FNDA:10061,_RNvMNtCs2FiXohbFBIi_19capability_security5auditNtB2_10AuditEntry3new
FNDA:19,_RNvMNtCs2FiXohbFBIi_19capability_security5auditNtB2_10AuditEntry6denied
FNDA:20,_RNvMNtCs2FiXohbFBIi_19capability_security5auditNtB2_10AuditEntry6issued
FNDA:10019,_RNvMNtCs2FiXohbFBIi_19capability_security5auditNtB2_10AuditEntry7allowed
FNDA:3,_RNvMNtCs2FiXohbFBIi_19capability_security5auditNtB2_10AuditEntry7revoked
FNDA:45,_RNvMs_NtCs2FiXohbFBIi_19capability_security5auditNtB4_11AuditLogger3new
FNDA:10061,_RNvMs_NtCs2FiXohbFBIi_19capability_security5auditNtB4_11AuditLogger6record
FNDA:3,_RNvMs_NtCs2FiXohbFBIi_19capability_security5auditNtB4_11AuditLogger7entries
FNDA:36,_RNvXs0_NtCs2FiXohbFBIi_19capability_security5auditNtB5_11AuditLoggerNtNtCs13ARFDxRLcQ_4core7default7Default7default
FNDA:34,_RNvMNtCsbxLU5GFwH79_19capability_security5auditNtB2_10AuditEntry3new
FNDA:11,_RNvMNtCsbxLU5GFwH79_19capability_security5auditNtB2_10AuditEntry6denied
FNDA:9,_RNvMNtCsbxLU5GFwH79_19capability_security5auditNtB2_10AuditEntry6issued
FNDA:10,_RNvMNtCsbxLU5GFwH79_19capability_security5auditNtB2_10AuditEntry7allowed
FNDA:4,_RNvMNtCsbxLU5GFwH79_19capability_security5auditNtB2_10AuditEntry7revoked
FNDA:10,_RNvMs_NtCsbxLU5GFwH79_19capability_security5auditNtB4_11AuditLogger3new
FNDA:30,_RNvMs_NtCsbxLU5GFwH79_19capability_security5auditNtB4_11AuditLogger6record
FNDA:5,_RNvMs_NtCsbxLU5GFwH79_19capability_security5auditNtB4_11AuditLogger7entries
FNDA:2,_RNvNtNtCsbxLU5GFwH79_19capability_security5audit5tests13test_log_path
FNDA:1,_RNvNtNtCsbxLU5GFwH79_19capability_security5audit5testss_31entries_skip_invalid_json_lines
FNDA:1,_RNvNtNtCsbxLU5GFwH79_19capability_security5audit5testss_36record_and_reload_entries_round_trip
FNDA:1,_RNvNtNtCsbxLU5GFwH79_19capability_security5audit5testss_40helper_constructors_use_expected_actions
FNDA:0,_RNvMNtCsbxLU5GFwH79_19capability_security5auditNtB2_10AuditEntry14process_killed
FNDA:0,_RNvMNtCsbxLU5GFwH79_19capability_security5auditNtB2_10AuditEntry14syscall_denied
FNDA:0,_RNvMNtCsbxLU5GFwH79_19capability_security5auditNtB2_10AuditEntry19process_quarantined
FNDA:0,_RNvXs0_NtCsbxLU5GFwH79_19capability_security5auditNtB5_11AuditLoggerNtNtCs13ARFDxRLcQ_4core7default7Default7default
FNF:16
FNH:13
DA:47,10095
DA:48,10095
DA:49,10095
DA:50,10095
DA:51,10095
DA:52,10095
DA:53,10095
DA:54,10095
DA:55,10095
DA:56,10095
DA:57,10095
DA:58,10095
DA:59,10095
DA:60,10095
DA:61,10095
DA:62,10095
DA:66,29
DA:67,29
DA:68,29
DA:72,10029
DA:73,10029
DA:74,10029
DA:78,30
DA:79,30
DA:80,30
DA:84,7
DA:85,7
DA:86,7
DA:90,0
DA:91,0
DA:92,0
DA:93,0
DA:94,0
DA:95,0
DA:96,0
DA:97,0
DA:101,0
DA:102,0
DA:103,0
DA:104,0
DA:105,0
DA:106,0
DA:107,0
DA:108,0
DA:112,0
DA:113,0
DA:114,0
DA:115,0
DA:116,0
DA:117,0
DA:118,0
DA:119,0
DA:132,55
DA:133,55
DA:134,55
DA:137,10091
DA:140,10091
DA:141,10091
DA:142,10091
DA:143,10091
DA:144,10091
DA:145,10090
DA:146,10090
DA:147,10090
DA:148,10091
DA:152,8
DA:153,8
DA:154,8
DA:155,8
DA:156,52
DA:157,52
DA:158,51
DA:159,51
DA:161,0
DA:162,8
DA:163,8
DA:168,36
DA:169,36
DA:170,36
DA:177,2
DA:178,2
DA:179,2
DA:180,2
DA:181,2
DA:184,1
DA:185,1
DA:186,1
DA:188,1
DA:189,1
DA:190,1
DA:191,1
DA:192,1
DA:193,1
DA:195,1
DA:196,1
DA:197,1
DA:198,1
DA:200,1
DA:201,1
DA:204,1
DA:205,1
DA:206,1
DA:207,1
DA:210,1
DA:212,1
DA:213,1
DA:215,1
DA:216,1
DA:218,1
DA:219,1
DA:222,1
DA:223,1
DA:224,1
DA:225,1
DA:226,1
DA:227,1
BRF:0
BRH:0
LF:116
LH:91
end_of_record
SF:/home/lokis/Documents/AI-Native-Kernel/crates/capability-security/src/lib.rs
FN:69,_RNvCs2FiXohbFBIi_19capability_security16constant_time_eq
FN:168,_RNvMCs2FiXohbFBIi_19capability_securityNtB2_25CapabilitySecurityManager10is_revoked
FN:121,_RNvMCs2FiXohbFBIi_19capability_securityNtB2_25CapabilitySecurityManager11issue_token
FN:275,_RNvMCs2FiXohbFBIi_19capability_securityNtB2_25CapabilitySecurityManager12decision_for
FN:152,_RNvMCs2FiXohbFBIi_19capability_securityNtB2_25CapabilitySecurityManager12revoke_token
FN:340,_RNvMCs2FiXohbFBIi_19capability_securityNtB2_25CapabilitySecurityManager13audit_entries
FN:177,_RNvMCs2FiXohbFBIi_19capability_securityNtB2_25CapabilitySecurityManager13revoked_count
FN:186,_RNvMCs2FiXohbFBIi_19capability_securityNtB2_25CapabilitySecurityManager15authorize_token
FN:85,_RNvMCs2FiXohbFBIi_19capability_securityNtB2_25CapabilitySecurityManager15with_rate_limit
FN:100,_RNvMCs2FiXohbFBIi_19capability_securityNtB2_25CapabilitySecurityManager17new_with_log_path
FN:105,_RNvMCs2FiXohbFBIi_19capability_securityNtB2_25CapabilitySecurityManager26new_with_log_path_and_rate
FN:80,_RNvMCs2FiXohbFBIi_19capability_securityNtB2_25CapabilitySecurityManager3new
FN:211,_RNvMCs2FiXohbFBIi_19capability_securityNtB2_25CapabilitySecurityManager8validate
FN:347,_RNvXs_Cs2FiXohbFBIi_19capability_securityNtB4_25CapabilitySecurityManagerNtNtCs13ARFDxRLcQ_4core7default7Default7default
FN:127,_RNCNvMCs2FiXohbFBIi_19capability_securityNtB4_25CapabilitySecurityManager11issue_token0B4_
FN:69,_RNvCsbxLU5GFwH79_19capability_security16constant_time_eq
FN:168,_RNvMCsbxLU5GFwH79_19capability_securityNtB2_25CapabilitySecurityManager10is_revoked
FN:121,_RNvMCsbxLU5GFwH79_19capability_securityNtB2_25CapabilitySecurityManager11issue_token
FN:275,_RNvMCsbxLU5GFwH79_19capability_securityNtB2_25CapabilitySecurityManager12decision_for
FN:152,_RNvMCsbxLU5GFwH79_19capability_securityNtB2_25CapabilitySecurityManager12revoke_token
FN:340,_RNvMCsbxLU5GFwH79_19capability_securityNtB2_25CapabilitySecurityManager13audit_entries
FN:177,_RNvMCsbxLU5GFwH79_19capability_securityNtB2_25CapabilitySecurityManager13revoked_count
FN:186,_RNvMCsbxLU5GFwH79_19capability_securityNtB2_25CapabilitySecurityManager15authorize_token
FN:100,_RNvMCsbxLU5GFwH79_19capability_securityNtB2_25CapabilitySecurityManager17new_with_log_path
FN:105,_RNvMCsbxLU5GFwH79_19capability_securityNtB2_25CapabilitySecurityManager26new_with_log_path_and_rate
FN:211,_RNvMCsbxLU5GFwH79_19capability_securityNtB2_25CapabilitySecurityManager8validate
FN:360,_RNvNtCsbxLU5GFwH79_19capability_security5testss_24issue_and_validate_token
FN:584,_RNvNtCsbxLU5GFwH79_19capability_security5testss_33revoke_nonexistent_token_succeeds
FN:500,_RNvNtCsbxLU5GFwH79_19capability_security5testss_34audit_write_failure_is_fail_closed
FN:597,_RNvNtCsbxLU5GFwH79_19capability_security5testss_34revoked_token_logs_denied_in_audit
FN:397,_RNvNtCsbxLU5GFwH79_19capability_security5testss_37rejects_expired_or_unauthorized_token
FN:523,_RNvNtCsbxLU5GFwH79_19capability_security5testss_37revoke_token_denies_subsequent_access
FN:464,_RNvNtCsbxLU5GFwH79_19capability_security5testss_39deny_capability_not_in_policy_allowlist
FN:434,_RNvNtCsbxLU5GFwH79_19capability_security5testss_40global_scope_can_authorize_across_scopes
FN:619,_RNCNvNtCsbxLU5GFwH79_19capability_security5testss_34revoked_token_logs_denied_in_audit0B5_
FN:628,_RNCNvNtCsbxLU5GFwH79_19capability_security5testss_34revoked_token_logs_denied_in_audits_0B5_
FN:127,_RNCNvMCsbxLU5GFwH79_19capability_securityNtB4_25CapabilitySecurityManager11issue_token0B4_
FN:85,_RNvMCsbxLU5GFwH79_19capability_securityNtB2_25CapabilitySecurityManager15with_rate_limit
FN:80,_RNvMCsbxLU5GFwH79_19capability_securityNtB2_25CapabilitySecurityManager3new
FN:347,_RNvXs_CsbxLU5GFwH79_19capability_securityNtB4_25CapabilitySecurityManagerNtNtCs13ARFDxRLcQ_4core7default7Default7default
FNDA:23,_RNvCs2FiXohbFBIi_19capability_security16constant_time_eq
FNDA:10038,_RNvMCs2FiXohbFBIi_19capability_securityNtB2_25CapabilitySecurityManager10is_revoked
FNDA:20,_RNvMCs2FiXohbFBIi_19capability_securityNtB2_25CapabilitySecurityManager11issue_token
FNDA:2,_RNvMCs2FiXohbFBIi_19capability_securityNtB2_25CapabilitySecurityManager12decision_for
FNDA:3,_RNvMCs2FiXohbFBIi_19capability_securityNtB2_25CapabilitySecurityManager12revoke_token
FNDA:3,_RNvMCs2FiXohbFBIi_19capability_securityNtB2_25CapabilitySecurityManager13audit_entries
FNDA:0,_RNvMCs2FiXohbFBIi_19capability_securityNtB2_25CapabilitySecurityManager13revoked_count
FNDA:10013,_RNvMCs2FiXohbFBIi_19capability_securityNtB2_25CapabilitySecurityManager15authorize_token
FNDA:36,_RNvMCs2FiXohbFBIi_19capability_securityNtB2_25CapabilitySecurityManager15with_rate_limit
FNDA:4,_RNvMCs2FiXohbFBIi_19capability_securityNtB2_25CapabilitySecurityManager17new_with_log_path
FNDA:7,_RNvMCs2FiXohbFBIi_19capability_securityNtB2_25CapabilitySecurityManager26new_with_log_path_and_rate
FNDA:36,_RNvMCs2FiXohbFBIi_19capability_securityNtB2_25CapabilitySecurityManager3new
FNDA:23,_RNvMCs2FiXohbFBIi_19capability_securityNtB2_25CapabilitySecurityManager8validate
FNDA:0,_RNvXs_Cs2FiXohbFBIi_19capability_securityNtB4_25CapabilitySecurityManagerNtNtCs13ARFDxRLcQ_4core7default7Default7default
FNDA:20,_RNCNvMCs2FiXohbFBIi_19capability_securityNtB4_25CapabilitySecurityManager11issue_token0B4_
FNDA:9,_RNvCsbxLU5GFwH79_19capability_security16constant_time_eq
FNDA:19,_RNvMCsbxLU5GFwH79_19capability_securityNtB2_25CapabilitySecurityManager10is_revoked
FNDA:7,_RNvMCsbxLU5GFwH79_19capability_securityNtB2_25CapabilitySecurityManager11issue_token
FNDA:6,_RNvMCsbxLU5GFwH79_19capability_securityNtB2_25CapabilitySecurityManager12decision_for
FNDA:3,_RNvMCsbxLU5GFwH79_19capability_securityNtB2_25CapabilitySecurityManager12revoke_token
FNDA:3,_RNvMCsbxLU5GFwH79_19capability_securityNtB2_25CapabilitySecurityManager13audit_entries
FNDA:1,_RNvMCsbxLU5GFwH79_19capability_securityNtB2_25CapabilitySecurityManager13revoked_count
FNDA:7,_RNvMCsbxLU5GFwH79_19capability_securityNtB2_25CapabilitySecurityManager15authorize_token
FNDA:8,_RNvMCsbxLU5GFwH79_19capability_securityNtB2_25CapabilitySecurityManager17new_with_log_path
FNDA:8,_RNvMCsbxLU5GFwH79_19capability_securityNtB2_25CapabilitySecurityManager26new_with_log_path_and_rate
FNDA:5,_RNvMCsbxLU5GFwH79_19capability_securityNtB2_25CapabilitySecurityManager8validate
FNDA:1,_RNvNtCsbxLU5GFwH79_19capability_security5testss_24issue_and_validate_token
FNDA:1,_RNvNtCsbxLU5GFwH79_19capability_security5testss_33revoke_nonexistent_token_succeeds
FNDA:1,_RNvNtCsbxLU5GFwH79_19capability_security5testss_34audit_write_failure_is_fail_closed
FNDA:1,_RNvNtCsbxLU5GFwH79_19capability_security5testss_34revoked_token_logs_denied_in_audit
FNDA:1,_RNvNtCsbxLU5GFwH79_19capability_security5testss_37rejects_expired_or_unauthorized_token
FNDA:1,_RNvNtCsbxLU5GFwH79_19capability_security5testss_37revoke_token_denies_subsequent_access
FNDA:1,_RNvNtCsbxLU5GFwH79_19capability_security5testss_39deny_capability_not_in_policy_allowlist
FNDA:1,_RNvNtCsbxLU5GFwH79_19capability_security5testss_40global_scope_can_authorize_across_scopes
FNDA:3,_RNCNvNtCsbxLU5GFwH79_19capability_security5testss_34revoked_token_logs_denied_in_audit0B5_
FNDA:3,_RNCNvNtCsbxLU5GFwH79_19capability_security5testss_34revoked_token_logs_denied_in_audits_0B5_
FNDA:7,_RNCNvMCsbxLU5GFwH79_19capability_securityNtB4_25CapabilitySecurityManager11issue_token0B4_
FNDA:0,_RNvMCsbxLU5GFwH79_19capability_securityNtB2_25CapabilitySecurityManager15with_rate_limit
FNDA:0,_RNvMCsbxLU5GFwH79_19capability_securityNtB2_25CapabilitySecurityManager3new
FNDA:0,_RNvXs_CsbxLU5GFwH79_19capability_securityNtB4_25CapabilitySecurityManagerNtNtCs13ARFDxRLcQ_4core7default7Default7default
FNF:25
FNH:24
DA:69,32
DA:70,32
DA:71,1024
DA:72,1024
DA:73,1024
DA:74,32
DA:75,32
DA:80,36
DA:81,36
DA:82,36
DA:85,36
DA:86,36
DA:87,36
DA:88,36
DA:89,36
DA:90,36
DA:91,36
DA:92,36
DA:93,36
DA:94,36
DA:95,36
DA:96,36
DA:100,12
DA:101,12
DA:102,12
DA:105,15
DA:106,15
DA:107,15
DA:108,15
DA:109,15
DA:110,15
DA:111,15
DA:112,15
DA:113,15
DA:114,15
DA:115,15
DA:116,15
DA:121,27
DA:122,27
DA:123,27
DA:124,27
DA:125,27
DA:126,27
DA:127,27
DA:128,0
DA:129,0
DA:130,0
DA:131,27
DA:132,0
DA:133,27
DA:134,27
DA:136,27
DA:137,27
DA:138,27
DA:139,26
DA:140,2
DA:141,2
DA:142,24
DA:143,26
DA:144,26
DA:145,26
DA:146,26
DA:147,26
DA:148,27
DA:152,6
DA:153,6
DA:154,6
DA:155,6
DA:156,6
DA:157,6
DA:158,6
DA:159,6
DA:160,6
DA:161,0
DA:162,6
DA:163,6
DA:164,6
DA:168,10057
DA:169,10057
DA:170,10057
DA:171,10057
DA:172,10057
DA:173,10057
DA:177,1
DA:178,1
DA:179,1
DA:180,1
DA:181,1
DA:182,1
DA:186,10020
DA:187,10020
DA:188,10019
DA:189,10015
DA:190,10015
DA:191,10015
DA:192,10020
DA:193,10010
DA:195,10
DA:197,10020
DA:198,10020
DA:199,10020
DA:201,10020
DA:202,10000
DA:203,10000
DA:204,10000
DA:205,20
DA:206,10020
DA:207,10020
DA:211,28
DA:212,28
DA:213,28
DA:214,28
DA:215,28
DA:216,28
DA:217,28
DA:218,28
DA:219,28
DA:220,0
DA:221,0
DA:222,0
DA:223,0
DA:227,28
DA:228,2
DA:229,2
DA:230,2
DA:231,2
DA:232,0
DA:233,0
DA:234,0
DA:235,2
DA:236,2
DA:237,26
DA:240,26
DA:241,10
DA:242,10
DA:243,10
DA:244,10
DA:245,0
DA:246,0
DA:247,0
DA:248,10
DA:249,10
DA:250,16
DA:252,16
DA:253,16
DA:254,13
DA:256,3
DA:258,16
DA:259,16
DA:260,16
DA:262,16
DA:263,1
DA:264,1
DA:265,1
DA:266,1
DA:267,0
DA:268,1
DA:269,15
DA:270,16
DA:271,28
DA:275,8
DA:276,8
DA:277,8
DA:278,8
DA:279,8
DA:280,8
DA:281,8
DA:282,8
DA:283,8
DA:284,0
DA:285,0
DA:286,0
DA:287,0
DA:288,0
DA:289,0
DA:290,0
DA:291,0
DA:295,8
DA:296,2
DA:297,2
DA:298,2
DA:299,2
DA:300,0
DA:301,0
DA:302,2
DA:303,2
DA:304,6
DA:307,6
DA:308,0
DA:309,0
DA:310,0
DA:311,0
DA:312,0
DA:313,0
DA:314,0
DA:315,0
DA:316,6
DA:318,6
DA:319,6
DA:320,4
DA:321,2
DA:323,6
DA:324,6
DA:325,6
DA:327,6
DA:328,1
DA:329,1
DA:330,1
DA:331,0
DA:333,1
DA:334,5
DA:335,6
DA:336,8
DA:340,6
DA:341,6
DA:342,6
DA:347,0
DA:348,0
DA:349,0
DA:360,1
DA:361,1
DA:362,1
DA:363,1
DA:364,1
DA:366,1
DA:367,1
DA:368,1
DA:369,1
DA:372,1
DA:373,1
DA:374,1
DA:376,1
DA:377,1
DA:378,1
DA:379,1
DA:381,1
DA:382,1
DA:383,1
DA:384,1
DA:386,1
DA:387,1
DA:388,1
DA:389,1
DA:392,1
DA:393,1
DA:394,1
DA:397,1
DA:398,1
DA:399,1
DA:400,1
DA:401,1
DA:402,1
DA:403,1
DA:404,1
DA:405,1
DA:406,1
DA:407,1
DA:409,1
DA:410,1
DA:411,1
DA:413,1
DA:414,1
DA:415,1
DA:416,1
DA:418,1
DA:419,1
DA:420,1
DA:421,1
DA:423,1
DA:424,1
DA:425,1
DA:426,1
DA:429,1
DA:430,1
DA:431,1
DA:434,1
DA:435,1
DA:436,1
DA:437,1
DA:438,1
DA:440,1
DA:441,1
DA:442,1
DA:443,1
DA:446,1
DA:447,1
DA:448,1
DA:449,1
DA:450,1
DA:451,1
DA:452,1
DA:454,1
DA:455,1
DA:456,1
DA:457,1
DA:460,1
DA:461,1
DA:464,1
DA:465,1
DA:466,1
DA:467,1
DA:468,1
DA:470,1
DA:471,1
DA:472,1
DA:473,1
DA:476,1
DA:477,1
DA:478,1
DA:480,1
DA:481,1
DA:482,1
DA:483,1
DA:485,1
DA:486,1
DA:487,1
DA:488,1
DA:490,1
DA:491,1
DA:492,1
DA:493,1
DA:496,1
DA:497,1
DA:500,1
DA:501,1
DA:502,1
DA:503,1
DA:505,1
DA:506,1
DA:508,1
DA:509,1
DA:510,1
DA:511,1
DA:514,1
DA:515,1
DA:519,1
DA:520,1
DA:523,1
DA:524,1
DA:525,1
DA:526,1
DA:527,1
DA:529,1
DA:530,1
DA:531,1
DA:532,1
DA:535,1
DA:536,1
DA:537,1
DA:540,1
DA:541,1
DA:542,1
DA:543,1
DA:545,1
DA:546,1
DA:547,1
DA:548,1
DA:550,1
DA:551,1
DA:552,1
DA:553,1
DA:558,1
DA:559,1
DA:560,1
DA:563,1
DA:564,1
DA:565,1
DA:566,1
DA:568,1
DA:569,1
DA:570,1
DA:571,1
DA:573,1
DA:574,1
DA:575,1
DA:576,1
DA:580,1
DA:581,1
DA:584,1
DA:585,1
DA:586,1
DA:587,1
DA:590,1
DA:591,1
DA:593,1
DA:594,1
DA:597,1
DA:598,1
DA:599,1
DA:600,1
DA:601,1
DA:603,1
DA:604,1
DA:605,1
DA:606,1
DA:609,1
DA:610,1
DA:611,1
DA:612,1
DA:615,1
DA:616,1
DA:617,1
DA:618,1
DA:619,3
DA:620,1
DA:621,1
DA:622,1
DA:626,1
DA:627,1
DA:628,3
DA:629,1
DA:630,1
DA:631,1
DA:636,1
DA:637,1
BRF:0
BRH:0
LF:418
LH:378
end_of_record
SF:/home/lokis/Documents/AI-Native-Kernel/crates/capability-security/src/metrics.rs
FN:26,_RNvMNtCs2FiXohbFBIi_19capability_security7metricsNtB2_15SecurityMetrics8register
FN:73,_RNvNtCs2FiXohbFBIi_19capability_security7metrics14render_metrics
FN:80,_RNCNvNtCs2FiXohbFBIi_19capability_security7metrics14render_metrics0B5_
FN:26,_RNvMNtCsbxLU5GFwH79_19capability_security7metricsNtB2_15SecurityMetrics8register
FN:73,_RNvNtCsbxLU5GFwH79_19capability_security7metrics14render_metrics
FN:80,_RNCNvNtCsbxLU5GFwH79_19capability_security7metrics14render_metrics0B5_
FN:98,_RNvNtNtCsbxLU5GFwH79_19capability_security7metrics5testss_26counter_labels_are_correct
FN:137,_RNvNtNtCsbxLU5GFwH79_19capability_security7metrics5testss_35render_output_contains_metric_names
FN:156,_RNvNtNtCsbxLU5GFwH79_19capability_security7metrics5testss_36duplicate_registration_returns_error
FN:90,_RNvNtNtCsbxLU5GFwH79_19capability_security7metrics5testss_37register_succeeds_with_fresh_registry
FNDA:43,_RNvMNtCs2FiXohbFBIi_19capability_security7metricsNtB2_15SecurityMetrics8register
FNDA:2,_RNvNtCs2FiXohbFBIi_19capability_security7metrics14render_metrics
FNDA:0,_RNCNvNtCs2FiXohbFBIi_19capability_security7metrics14render_metrics0B5_
FNDA:13,_RNvMNtCsbxLU5GFwH79_19capability_security7metricsNtB2_15SecurityMetrics8register
FNDA:1,_RNvNtCsbxLU5GFwH79_19capability_security7metrics14render_metrics
FNDA:0,_RNCNvNtCsbxLU5GFwH79_19capability_security7metrics14render_metrics0B5_
FNDA:1,_RNvNtNtCsbxLU5GFwH79_19capability_security7metrics5testss_26counter_labels_are_correct
FNDA:1,_RNvNtNtCsbxLU5GFwH79_19capability_security7metrics5testss_35render_output_contains_metric_names
FNDA:1,_RNvNtNtCsbxLU5GFwH79_19capability_security7metrics5testss_36duplicate_registration_returns_error
FNDA:1,_RNvNtNtCsbxLU5GFwH79_19capability_security7metrics5testss_37register_succeeds_with_fresh_registry
FNF:7
FNH:6
DA:26,56
DA:28,56
DA:31,0
DA:34,56
DA:35,56
DA:39,56
DA:40,0
DA:43,56
DA:46,0
DA:49,56
DA:52,0
DA:55,56
DA:56,12
DA:57,12
DA:58,12
DA:60,12
DA:61,12
DA:62,12
DA:63,12
DA:64,12
DA:65,12
DA:66,56
DA:73,3
DA:75,3
DA:76,3
DA:77,3
DA:78,3
DA:79,3
DA:80,3
DA:81,3
DA:82,3
DA:90,1
DA:92,1
DA:93,1
DA:94,1
DA:95,1
DA:98,1
DA:100,1
DA:101,1
DA:104,1
DA:105,1
DA:106,1
DA:107,1
DA:108,1
DA:109,1
DA:110,1
DA:111,1
DA:112,1
DA:113,1
DA:114,1
DA:115,1
DA:118,1
DA:119,1
DA:120,1
DA:121,1
DA:122,1
DA:126,1
DA:127,1
DA:128,1
DA:129,1
DA:130,1
DA:134,1
DA:137,1
DA:139,1
DA:140,1
DA:141,1
DA:142,1
DA:144,1
DA:145,1
DA:146,1
DA:149,1
DA:150,1
DA:153,1
DA:156,1
DA:158,1
DA:159,1
DA:160,1
DA:161,1
DA:162,1
BRF:0
BRH:0
LF:80
LH:75
end_of_record
SF:/home/lokis/Documents/AI-Native-Kernel/crates/capability-security/src/policy.rs
FN:27,_RNvMNtCs2FiXohbFBIi_19capability_security6policyNtB2_12PolicyEngine3new
FN:58,_RNvMNtCs2FiXohbFBIi_19capability_security6policyNtB2_12PolicyEngine8decision
FN:49,_RNvMNtCs2FiXohbFBIi_19capability_security6policyNtB2_12PolicyEngine9authorize
FN:84,_RNvXs_NtCs2FiXohbFBIi_19capability_security6policyNtB4_12PolicyEngineNtNtCs13ARFDxRLcQ_4core7default7Default7default
FN:33,_RINvMNtCs2FiXohbFBIi_19capability_security6policyNtB3_12PolicyEngine25with_allowed_capabilitiesARej2_B1w_EB5_
FN:27,_RNvMNtCsbxLU5GFwH79_19capability_security6policyNtB2_12PolicyEngine3new
FN:58,_RNvMNtCsbxLU5GFwH79_19capability_security6policyNtB2_12PolicyEngine8decision
FN:49,_RNvMNtCsbxLU5GFwH79_19capability_security6policyNtB2_12PolicyEngine9authorize
FN:84,_RNvXs_NtCsbxLU5GFwH79_19capability_security6policyNtB4_12PolicyEngineNtNtCs13ARFDxRLcQ_4core7default7Default7default
FN:33,_RINvMNtCsbxLU5GFwH79_19capability_security6policyNtB3_12PolicyEngine25with_allowed_capabilitiesARej1_B1w_EB5_
FN:33,_RINvMNtCsbxLU5GFwH79_19capability_security6policyNtB3_12PolicyEngine25with_allowed_capabilitiesARej2_B1w_EB5_
FN:94,_RNvNtNtCsbxLU5GFwH79_19capability_security6policy5tests5token
FN:167,_RNvNtNtCsbxLU5GFwH79_19capability_security6policy5testss_27custom_allowlist_is_honored
FN:117,_RNvNtNtCsbxLU5GFwH79_19capability_security6policy5testss_41decision_denies_scope_mismatch_by_default
FN:139,_RNvNtNtCsbxLU5GFwH79_19capability_security6policy5testss_44decision_denies_capability_outside_allowlist
FN:105,_RNvNtNtCsbxLU5GFwH79_19capability_security6policy5testss_45decision_allows_matching_scope_and_capability
FN:150,_RNvNtNtCsbxLU5GFwH79_19capability_security6policy5testss_54decision_denies_expired_tokens_even_when_scope_matches
FN:128,_RNvNtNtCsbxLU5GFwH79_19capability_security6policy5testss_55decision_can_allow_scope_mismatch_when_default_is_allow
FN:98,_RNCNvNtNtCsbxLU5GFwH79_19capability_security6policy5tests5token0B7_
FNDA:299,_RNvMNtCs2FiXohbFBIi_19capability_security6policyNtB2_12PolicyEngine3new
FNDA:10279,_RNvMNtCs2FiXohbFBIi_19capability_security6policyNtB2_12PolicyEngine8decision
FNDA:10022,_RNvMNtCs2FiXohbFBIi_19capability_security6policyNtB2_12PolicyEngine9authorize
FNDA:299,_RNvXs_NtCs2FiXohbFBIi_19capability_security6policyNtB4_12PolicyEngineNtNtCs13ARFDxRLcQ_4core7default7Default7default
FNDA:299,_RINvMNtCs2FiXohbFBIi_19capability_security6policyNtB3_12PolicyEngine25with_allowed_capabilitiesARej2_B1w_EB5_
FNDA:13,_RNvMNtCsbxLU5GFwH79_19capability_security6policyNtB2_12PolicyEngine3new
FNDA:20,_RNvMNtCsbxLU5GFwH79_19capability_security6policyNtB2_12PolicyEngine8decision
FNDA:8,_RNvMNtCsbxLU5GFwH79_19capability_security6policyNtB2_12PolicyEngine9authorize
FNDA:12,_RNvXs_NtCsbxLU5GFwH79_19capability_security6policyNtB4_12PolicyEngineNtNtCs13ARFDxRLcQ_4core7default7Default7default
FNDA:1,_RINvMNtCsbxLU5GFwH79_19capability_security6policyNtB3_12PolicyEngine25with_allowed_capabilitiesARej1_B1w_EB5_
FNDA:13,_RINvMNtCsbxLU5GFwH79_19capability_security6policyNtB3_12PolicyEngine25with_allowed_capabilitiesARej2_B1w_EB5_
FNDA:5,_RNvNtNtCsbxLU5GFwH79_19capability_security6policy5tests5token
FNDA:1,_RNvNtNtCsbxLU5GFwH79_19capability_security6policy5testss_27custom_allowlist_is_honored
FNDA:1,_RNvNtNtCsbxLU5GFwH79_19capability_security6policy5testss_41decision_denies_scope_mismatch_by_default
FNDA:1,_RNvNtNtCsbxLU5GFwH79_19capability_security6policy5testss_44decision_denies_capability_outside_allowlist
FNDA:1,_RNvNtNtCsbxLU5GFwH79_19capability_security6policy5testss_45decision_allows_matching_scope_and_capability
FNDA:1,_RNvNtNtCsbxLU5GFwH79_19capability_security6policy5testss_54decision_denies_expired_tokens_even_when_scope_matches
FNDA:1,_RNvNtNtCsbxLU5GFwH79_19capability_security6policy5testss_55decision_can_allow_scope_mismatch_when_default_is_allow
FNDA:5,_RNCNvNtNtCsbxLU5GFwH79_19capability_security6policy5tests5token0B7_
FNF:13
FNH:13
DA:27,312
DA:28,312
DA:29,312
DA:33,313
DA:34,313
DA:35,313
DA:36,313
DA:37,313
DA:38,313
DA:39,313
DA:41,313
DA:42,313
DA:43,313
DA:44,313
DA:45,313
DA:49,10030
DA:50,6
DA:51,10030
DA:54,10030
DA:58,10299
DA:59,10299
DA:60,10299
DA:61,10299
DA:62,10299
DA:63,10299
DA:65,10299
DA:66,10297
DA:67,10038
DA:69,267
DA:70,10032
DA:73,10032
DA:74,10030
DA:77,2
DA:79,10299
DA:84,311
DA:85,311
DA:86,311
DA:94,5
DA:95,5
DA:97,5
DA:98,5
DA:99,5
DA:100,5
DA:102,5
DA:105,1
DA:106,1
DA:107,1
DA:109,1
DA:110,1
DA:113,1
DA:114,1
DA:117,1
DA:118,1
DA:119,1
DA:121,1
DA:122,1
DA:125,1
DA:128,1
DA:129,1
DA:130,1
DA:132,1
DA:133,1
DA:136,1
DA:139,1
DA:140,1
DA:141,1
DA:143,1
DA:144,1
DA:147,1
DA:150,1
DA:151,1
DA:152,1
DA:153,1
DA:154,1
DA:155,1
DA:156,1
DA:157,1
DA:158,1
DA:160,1
DA:161,1
DA:164,1
DA:167,1
DA:168,1
DA:169,1
DA:171,1
DA:172,1
DA:175,1
DA:176,1
DA:179,1
BRF:0
BRH:0
LF:90
LH:90
end_of_record
SF:/home/lokis/Documents/AI-Native-Kernel/crates/capability-security/src/token.rs
FN:26,_RNvMNtCs2FiXohbFBIi_19capability_security5tokenNtB2_15CapabilityToken3new
FN:50,_RNvMNtCs2FiXohbFBIi_19capability_security5tokenNtB2_15CapabilityToken6allows
FN:44,_RNvMNtCs2FiXohbFBIi_19capability_security5tokenNtB2_15CapabilityToken8is_valid
FN:51,_RNCNvMNtCs2FiXohbFBIi_19capability_security5tokenNtB4_15CapabilityToken6allows0B6_
FN:51,_RNCNvMNtCsbxLU5GFwH79_19capability_security5tokenNtB4_15CapabilityToken6allows0B6_
FN:89,_RNvNtNtCsbxLU5GFwH79_19capability_security5token5testss_32token_validity_tracks_expiration
FN:71,_RNvNtNtCsbxLU5GFwH79_19capability_security5token5testss_33new_token_carries_expected_fields
FN:110,_RNvNtNtCsbxLU5GFwH79_19capability_security5token5testss_38allows_requires_exact_capability_match
FN:125,_RNvNtNtCsbxLU5GFwH79_19capability_security5token5testss_48token_json_round_trip_preserves_secret_and_scope
FN:26,_RNvMNtCsbxLU5GFwH79_19capability_security5tokenNtB2_15CapabilityToken3new
FN:50,_RNvMNtCsbxLU5GFwH79_19capability_security5tokenNtB2_15CapabilityToken6allows
FN:44,_RNvMNtCsbxLU5GFwH79_19capability_security5tokenNtB2_15CapabilityToken8is_valid
FNDA:277,_RNvMNtCs2FiXohbFBIi_19capability_security5tokenNtB2_15CapabilityToken3new
FNDA:10279,_RNvMNtCs2FiXohbFBIi_19capability_security5tokenNtB2_15CapabilityToken6allows
FNDA:20304,_RNvMNtCs2FiXohbFBIi_19capability_security5tokenNtB2_15CapabilityToken8is_valid
FNDA:10280,_RNCNvMNtCs2FiXohbFBIi_19capability_security5tokenNtB4_15CapabilityToken6allows0B6_
FNDA:24,_RNCNvMNtCsbxLU5GFwH79_19capability_security5tokenNtB4_15CapabilityToken6allows0B6_
FNDA:1,_RNvNtNtCsbxLU5GFwH79_19capability_security5token5testss_32token_validity_tracks_expiration
FNDA:1,_RNvNtNtCsbxLU5GFwH79_19capability_security5token5testss_33new_token_carries_expected_fields
FNDA:1,_RNvNtNtCsbxLU5GFwH79_19capability_security5token5testss_38allows_requires_exact_capability_match
FNDA:1,_RNvNtNtCsbxLU5GFwH79_19capability_security5token5testss_48token_json_round_trip_preserves_secret_and_scope
FNDA:15,_RNvMNtCsbxLU5GFwH79_19capability_security5tokenNtB2_15CapabilityToken3new
FNDA:23,_RNvMNtCsbxLU5GFwH79_19capability_security5tokenNtB2_15CapabilityToken6allows
FNDA:33,_RNvMNtCsbxLU5GFwH79_19capability_security5tokenNtB2_15CapabilityToken8is_valid
FNF:8
FNH:8
DA:26,292
DA:27,292
DA:28,292
DA:29,292
DA:30,292
DA:31,292
DA:32,292
DA:33,292
DA:34,292
DA:35,292
DA:36,292
DA:37,292
DA:38,292
DA:39,292
DA:40,292
DA:44,20337
DA:45,20337
DA:46,20337
DA:50,10302
DA:51,10304
DA:52,10302
DA:71,1
DA:72,1
DA:73,1
DA:75,1
DA:76,1
DA:77,1
DA:78,1
DA:81,1
DA:82,1
DA:83,1
DA:84,1
DA:85,1
DA:86,1
DA:89,1
DA:90,1
DA:92,1
DA:93,1
DA:94,1
DA:95,1
DA:97,1
DA:99,1
DA:100,1
DA:101,1
DA:102,1
DA:103,1
DA:104,1
DA:105,1
DA:106,1
DA:107,1
DA:110,1
DA:111,1
DA:113,1
DA:114,1
DA:115,1
DA:116,1
DA:119,1
DA:120,1
DA:121,1
DA:122,1
DA:125,1
DA:126,1
DA:128,1
DA:129,1
DA:130,1
DA:131,1
DA:134,1
DA:135,1
DA:136,1
DA:138,1
DA:139,1
DA:140,1
DA:141,1
DA:142,1
BRF:0
BRH:0
LF:75
LH:75
end_of_record
SF:/home/lokis/Documents/AI-Native-Kernel/crates/compute-scheduler/src/cost.rs
FN:8,_RNvNtCsd7MoEgYx7bU_17compute_scheduler4cost12score_target
FN:32,_RNvNtNtCsiImZfhoGHOe_17compute_scheduler4cost5testss_29zero_weights_yield_zero_score
FN:19,_RNvNtNtCsiImZfhoGHOe_17compute_scheduler4cost5testss_41score_target_matches_weighted_sum_formula
FN:8,_RNvNtCsiImZfhoGHOe_17compute_scheduler4cost12score_target
FNDA:10011,_RNvNtCsd7MoEgYx7bU_17compute_scheduler4cost12score_target
FNDA:1,_RNvNtNtCsiImZfhoGHOe_17compute_scheduler4cost5testss_29zero_weights_yield_zero_score
FNDA:1,_RNvNtNtCsiImZfhoGHOe_17compute_scheduler4cost5testss_41score_target_matches_weighted_sum_formula
FNDA:17,_RNvNtCsiImZfhoGHOe_17compute_scheduler4cost12score_target
FNF:3
FNH:3
DA:8,10028
DA:9,10028
DA:10,10028
DA:11,10028
DA:12,10028
DA:19,1
DA:20,1
DA:21,1
DA:22,1
DA:23,1
DA:24,1
DA:25,1
DA:27,1
DA:28,1
DA:29,1
DA:32,1
DA:33,1
DA:34,1
DA:35,1
DA:36,1
DA:37,1
DA:38,1
DA:40,1
DA:41,1
BRF:0
BRH:0
LF:24
LH:24
end_of_record
SF:/home/lokis/Documents/AI-Native-Kernel/crates/compute-scheduler/src/hardware.rs
FN:42,_RNvMs_NtCsd7MoEgYx7bU_17compute_scheduler8hardwareNtB4_14HardwareProber13scan_hardware
FN:141,_RNvMs_NtCsd7MoEgYx7bU_17compute_scheduler8hardwareNtB4_14HardwareProber17probe_npu_devices
FN:21,_RNvMs_NtCsd7MoEgYx7bU_17compute_scheduler8hardwareNtB4_14HardwareProber3new
FN:14,_RNvXNtCsd7MoEgYx7bU_17compute_scheduler8hardwareNtB2_14HardwareProberNtNtCs13ARFDxRLcQ_4core7default7Default7default
FN:65,_RNCNvMs_NtCsd7MoEgYx7bU_17compute_scheduler8hardwareNtB6_14HardwareProber13scan_hardware0B8_
FN:74,_RNCNvMs_NtCsd7MoEgYx7bU_17compute_scheduler8hardwareNtB6_14HardwareProber13scan_hardwares0_0B8_
FN:70,_RNCNvMs_NtCsd7MoEgYx7bU_17compute_scheduler8hardwareNtB6_14HardwareProber13scan_hardwares_0B8_
FN:14,_RNvXNtCsiImZfhoGHOe_17compute_scheduler8hardwareNtB2_14HardwareProberNtNtCs13ARFDxRLcQ_4core7default7Default7default
FN:42,_RNvMs_NtCsiImZfhoGHOe_17compute_scheduler8hardwareNtB4_14HardwareProber13scan_hardware
FN:141,_RNvMs_NtCsiImZfhoGHOe_17compute_scheduler8hardwareNtB4_14HardwareProber17probe_npu_devices
FN:21,_RNvMs_NtCsiImZfhoGHOe_17compute_scheduler8hardwareNtB4_14HardwareProber3new
FN:65,_RNCNvMs_NtCsiImZfhoGHOe_17compute_scheduler8hardwareNtB6_14HardwareProber13scan_hardware0B8_
FN:74,_RNCNvMs_NtCsiImZfhoGHOe_17compute_scheduler8hardwareNtB6_14HardwareProber13scan_hardwares0_0B8_
FN:70,_RNCNvMs_NtCsiImZfhoGHOe_17compute_scheduler8hardwareNtB6_14HardwareProber13scan_hardwares_0B8_
FNDA:0,_RNvMs_NtCsd7MoEgYx7bU_17compute_scheduler8hardwareNtB4_14HardwareProber13scan_hardware
FNDA:0,_RNvMs_NtCsd7MoEgYx7bU_17compute_scheduler8hardwareNtB4_14HardwareProber17probe_npu_devices
FNDA:0,_RNvMs_NtCsd7MoEgYx7bU_17compute_scheduler8hardwareNtB4_14HardwareProber3new
FNDA:0,_RNvXNtCsd7MoEgYx7bU_17compute_scheduler8hardwareNtB2_14HardwareProberNtNtCs13ARFDxRLcQ_4core7default7Default7default
FNDA:0,_RNCNvMs_NtCsd7MoEgYx7bU_17compute_scheduler8hardwareNtB6_14HardwareProber13scan_hardware0B8_
FNDA:0,_RNCNvMs_NtCsd7MoEgYx7bU_17compute_scheduler8hardwareNtB6_14HardwareProber13scan_hardwares0_0B8_
FNDA:0,_RNCNvMs_NtCsd7MoEgYx7bU_17compute_scheduler8hardwareNtB6_14HardwareProber13scan_hardwares_0B8_
FNDA:0,_RNvXNtCsiImZfhoGHOe_17compute_scheduler8hardwareNtB2_14HardwareProberNtNtCs13ARFDxRLcQ_4core7default7Default7default
FNDA:1,_RNvMs_NtCsiImZfhoGHOe_17compute_scheduler8hardwareNtB4_14HardwareProber13scan_hardware
FNDA:1,_RNvMs_NtCsiImZfhoGHOe_17compute_scheduler8hardwareNtB4_14HardwareProber17probe_npu_devices
FNDA:1,_RNvMs_NtCsiImZfhoGHOe_17compute_scheduler8hardwareNtB4_14HardwareProber3new
FNDA:0,_RNCNvMs_NtCsiImZfhoGHOe_17compute_scheduler8hardwareNtB6_14HardwareProber13scan_hardware0B8_
FNDA:0,_RNCNvMs_NtCsiImZfhoGHOe_17compute_scheduler8hardwareNtB6_14HardwareProber13scan_hardwares0_0B8_
FNDA:0,_RNCNvMs_NtCsiImZfhoGHOe_17compute_scheduler8hardwareNtB6_14HardwareProber13scan_hardwares_0B8_
FNF:7
FNH:3
DA:14,0
DA:15,0
DA:16,0
DA:21,1
DA:22,1
DA:23,1
DA:24,0
DA:25,0
DA:26,0
DA:28,1
DA:29,1
DA:33,1
DA:37,1
DA:38,1
DA:42,1
DA:43,1
DA:44,1
DA:47,1
DA:48,1
DA:49,1
DA:50,1
DA:51,1
DA:52,1
DA:53,1
DA:54,1
DA:57,1
DA:58,0
DA:59,0
DA:60,0
DA:62,0
DA:63,0
DA:64,0
DA:65,0
DA:66,0
DA:68,0
DA:69,0
DA:70,0
DA:71,0
DA:73,0
DA:74,0
DA:76,0
DA:77,0
DA:78,0
DA:79,0
DA:82,0
DA:83,0
DA:85,0
DA:88,0
DA:89,0
DA:90,0
DA:92,0
DA:95,0
DA:104,0
DA:105,0
DA:106,0
DA:107,0
DA:108,0
DA:109,0
DA:110,0
DA:111,0
DA:112,0
DA:114,0
DA:115,0
DA:117,1
DA:121,1
DA:122,1
DA:123,0
DA:124,0
DA:125,0
DA:126,0
DA:127,0
DA:128,0
DA:129,0
DA:130,0
DA:133,1
DA:134,1
DA:141,1
DA:142,1
DA:145,1
DA:146,243
DA:147,243
DA:148,243
DA:149,243
DA:150,243
DA:151,243
DA:152,0
DA:153,0
DA:154,243
DA:156,0
DA:159,1
DA:160,1
DA:161,1
DA:162,0
DA:163,0
DA:164,0
DA:165,0
DA:167,0
DA:168,0
DA:171,1
DA:172,0
DA:173,0
DA:174,0
DA:175,0
DA:176,0
DA:177,1
DA:179,1
DA:180,1
BRF:0
BRH:0
LF:110
LH:42
end_of_record
SF:/home/lokis/Documents/AI-Native-Kernel/crates/compute-scheduler/src/lib.rs
FN:83,_RNvMCsd7MoEgYx7bU_17compute_schedulerNtB2_16ComputeScheduler11choose_best
FN:68,_RNvMCsd7MoEgYx7bU_17compute_schedulerNtB2_16ComputeScheduler12with_weights
FN:99,_RNvMCsd7MoEgYx7bU_17compute_schedulerNtB2_16ComputeScheduler14update_weights
FN:105,_RNvMCsd7MoEgYx7bU_17compute_schedulerNtB2_16ComputeScheduler18scan_real_hardware
FN:60,_RNvMCsd7MoEgYx7bU_17compute_schedulerNtB2_16ComputeScheduler3new
FN:76,_RNvMCsd7MoEgYx7bU_17compute_schedulerNtB2_16ComputeScheduler5score
FN:112,_RNvXs_Csd7MoEgYx7bU_17compute_schedulerNtB4_16ComputeSchedulerNtNtCs13ARFDxRLcQ_4core7default7Default7default
FN:89,_RNCNvMCsd7MoEgYx7bU_17compute_schedulerNtB4_16ComputeScheduler11choose_best0B4_
FN:112,_RNvXs_CsiImZfhoGHOe_17compute_schedulerNtB4_16ComputeSchedulerNtNtCs13ARFDxRLcQ_4core7default7Default7default
FN:311,_RNCNvNtCsiImZfhoGHOe_17compute_scheduler5testss_39scan_real_hardware_returns_at_least_cpu0B5_
FN:89,_RNCNvMCsiImZfhoGHOe_17compute_schedulerNtB4_16ComputeScheduler11choose_best0B4_
FN:122,_RNvNtCsiImZfhoGHOe_17compute_scheduler5testss_31choose_best_prefers_lower_score
FN:211,_RNvNtCsiImZfhoGHOe_17compute_scheduler5testss_38update_weights_converges_toward_sample
FN:304,_RNvNtCsiImZfhoGHOe_17compute_scheduler5testss_39scan_real_hardware_returns_at_least_cpu
FN:161,_RNvNtCsiImZfhoGHOe_17compute_scheduler5testss_40choose_best_single_candidate_always_wins
FN:268,_RNvNtCsiImZfhoGHOe_17compute_scheduler5testss_42three_way_comparison_picks_npu_as_cheapest
FN:181,_RNvNtCsiImZfhoGHOe_17compute_scheduler5testss_43score_is_non_negative_for_positive_profiles
FN:153,_RNvNtCsiImZfhoGHOe_17compute_scheduler5testss_44choose_best_returns_error_when_no_candidates
FN:243,_RNvNtCsiImZfhoGHOe_17compute_scheduler5testss_49update_weights_preserves_normalized_weight_budget
FN:83,_RNvMCsiImZfhoGHOe_17compute_schedulerNtB2_16ComputeScheduler11choose_best
FN:68,_RNvMCsiImZfhoGHOe_17compute_schedulerNtB2_16ComputeScheduler12with_weights
FN:99,_RNvMCsiImZfhoGHOe_17compute_schedulerNtB2_16ComputeScheduler14update_weights
FN:105,_RNvMCsiImZfhoGHOe_17compute_schedulerNtB2_16ComputeScheduler18scan_real_hardware
FN:60,_RNvMCsiImZfhoGHOe_17compute_schedulerNtB2_16ComputeScheduler3new
FN:76,_RNvMCsiImZfhoGHOe_17compute_schedulerNtB2_16ComputeScheduler5score
FNDA:8,_RNvMCsd7MoEgYx7bU_17compute_schedulerNtB2_16ComputeScheduler11choose_best
FNDA:3,_RNvMCsd7MoEgYx7bU_17compute_schedulerNtB2_16ComputeScheduler12with_weights
FNDA:100,_RNvMCsd7MoEgYx7bU_17compute_schedulerNtB2_16ComputeScheduler14update_weights
FNDA:0,_RNvMCsd7MoEgYx7bU_17compute_schedulerNtB2_16ComputeScheduler18scan_real_hardware
FNDA:7,_RNvMCsd7MoEgYx7bU_17compute_schedulerNtB2_16ComputeScheduler3new
FNDA:10011,_RNvMCsd7MoEgYx7bU_17compute_schedulerNtB2_16ComputeScheduler5score
FNDA:0,_RNvXs_Csd7MoEgYx7bU_17compute_schedulerNtB4_16ComputeSchedulerNtNtCs13ARFDxRLcQ_4core7default7Default7default
FNDA:3,_RNCNvMCsd7MoEgYx7bU_17compute_schedulerNtB4_16ComputeScheduler11choose_best0B4_
FNDA:0,_RNvXs_CsiImZfhoGHOe_17compute_schedulerNtB4_16ComputeSchedulerNtNtCs13ARFDxRLcQ_4core7default7Default7default
FNDA:1,_RNCNvNtCsiImZfhoGHOe_17compute_scheduler5testss_39scan_real_hardware_returns_at_least_cpu0B5_
FNDA:5,_RNCNvMCsiImZfhoGHOe_17compute_schedulerNtB4_16ComputeScheduler11choose_best0B4_
FNDA:1,_RNvNtCsiImZfhoGHOe_17compute_scheduler5testss_31choose_best_prefers_lower_score
FNDA:1,_RNvNtCsiImZfhoGHOe_17compute_scheduler5testss_38update_weights_converges_toward_sample
FNDA:1,_RNvNtCsiImZfhoGHOe_17compute_scheduler5testss_39scan_real_hardware_returns_at_least_cpu
FNDA:1,_RNvNtCsiImZfhoGHOe_17compute_scheduler5testss_40choose_best_single_candidate_always_wins
FNDA:1,_RNvNtCsiImZfhoGHOe_17compute_scheduler5testss_42three_way_comparison_picks_npu_as_cheapest
FNDA:1,_RNvNtCsiImZfhoGHOe_17compute_scheduler5testss_43score_is_non_negative_for_positive_profiles
FNDA:1,_RNvNtCsiImZfhoGHOe_17compute_scheduler5testss_44choose_best_returns_error_when_no_candidates
FNDA:1,_RNvNtCsiImZfhoGHOe_17compute_scheduler5testss_49update_weights_preserves_normalized_weight_budget
FNDA:7,_RNvMCsiImZfhoGHOe_17compute_schedulerNtB2_16ComputeScheduler11choose_best
FNDA:2,_RNvMCsiImZfhoGHOe_17compute_schedulerNtB2_16ComputeScheduler12with_weights
FNDA:30,_RNvMCsiImZfhoGHOe_17compute_schedulerNtB2_16ComputeScheduler14update_weights
FNDA:1,_RNvMCsiImZfhoGHOe_17compute_schedulerNtB2_16ComputeScheduler18scan_real_hardware
FNDA:10,_RNvMCsiImZfhoGHOe_17compute_schedulerNtB2_16ComputeScheduler3new
FNDA:15,_RNvMCsiImZfhoGHOe_17compute_schedulerNtB2_16ComputeScheduler5score
FNF:17
FNH:16
DA:60,17
DA:61,17
DA:62,17
DA:63,17
DA:64,17
DA:68,5
DA:69,5
DA:70,5
DA:71,5
DA:72,5
DA:76,10026
DA:77,10026
DA:78,10026
DA:79,10026
DA:83,15
DA:84,15
DA:85,15
DA:86,15
DA:87,15
DA:88,15
DA:89,15
DA:90,8
DA:91,8
DA:92,8
DA:93,8
DA:94,15
DA:95,15
DA:96,15
DA:99,130
DA:100,130
DA:101,130
DA:102,130
DA:105,1
DA:106,1
DA:107,1
DA:108,1
DA:112,0
DA:113,0
DA:114,0
DA:122,1
DA:124,1
DA:125,1
DA:126,1
DA:127,1
DA:128,1
DA:129,1
DA:130,1
DA:131,1
DA:132,1
DA:133,1
DA:134,1
DA:135,1
DA:136,1
DA:137,1
DA:138,1
DA:139,1
DA:140,1
DA:141,1
DA:142,1
DA:144,1
DA:145,1
DA:146,1
DA:147,1
DA:150,1
DA:153,1
DA:155,1
DA:156,1
DA:157,1
DA:158,1
DA:161,1
DA:163,1
DA:164,1
DA:165,1
DA:166,1
DA:167,1
DA:168,1
DA:169,1
DA:170,1
DA:171,1
DA:172,1
DA:173,1
DA:174,1
DA:175,1
DA:178,1
DA:181,1
DA:183,1
DA:184,1
DA:185,1
DA:186,1
DA:187,1
DA:188,1
DA:189,1
DA:190,1
DA:191,1
DA:192,1
DA:193,1
DA:194,1
DA:195,1
DA:196,1
DA:197,1
DA:198,1
DA:199,1
DA:200,1
DA:201,3
DA:202,3
DA:203,3
DA:208,1
DA:211,1
DA:213,1
DA:214,1
DA:215,1
DA:216,1
DA:217,1
DA:218,1
DA:220,1
DA:221,1
DA:222,1
DA:223,1
DA:224,1
DA:227,1
DA:229,20
DA:230,20
DA:231,20
DA:232,1
DA:235,1
DA:236,1
DA:237,1
DA:240,1
DA:243,1
DA:244,1
DA:245,1
DA:246,1
DA:247,1
DA:248,1
DA:249,1
DA:251,10
DA:252,10
DA:253,10
DA:255,1
DA:256,1
DA:257,1
DA:258,1
DA:259,1
DA:261,1
DA:262,1
DA:265,1
DA:268,1
DA:270,1
DA:271,1
DA:272,1
DA:273,1
DA:274,1
DA:275,1
DA:276,1
DA:277,1
DA:278,1
DA:279,1
DA:280,1
DA:281,1
DA:282,1
DA:283,1
DA:284,1
DA:285,1
DA:286,1
DA:287,1
DA:288,1
DA:289,1
DA:290,1
DA:291,1
DA:292,1
DA:293,1
DA:294,1
DA:295,1
DA:296,1
DA:297,1
DA:298,1
DA:301,1
DA:304,1
DA:305,1
DA:306,1
DA:307,1
DA:308,1
DA:309,1
DA:310,1
DA:311,1
DA:314,1
BRF:0
BRH:0
LF:188
LH:185
end_of_record
SF:/home/lokis/Documents/AI-Native-Kernel/crates/compute-scheduler/src/placement.rs
FN:61,_RNCNvMNtCsd7MoEgYx7bU_17compute_scheduler9placementNtB4_15PlacementPolicy5place0B6_
FN:32,_RNvMNtCsd7MoEgYx7bU_17compute_scheduler9placementNtB2_15PlacementPolicy15allowed_targets
FN:26,_RNvMNtCsd7MoEgYx7bU_17compute_scheduler9placementNtB2_15PlacementPolicy3new
FN:51,_RNvMNtCsd7MoEgYx7bU_17compute_scheduler9placementNtB2_15PlacementPolicy5place
FN:61,_RNCNvMNtCsiImZfhoGHOe_17compute_scheduler9placementNtB4_15PlacementPolicy5place0B6_
FN:83,_RNvNtNtCsiImZfhoGHOe_17compute_scheduler9placement5tests14dummy_profiles
FN:121,_RNvNtNtCsiImZfhoGHOe_17compute_scheduler9placement5testss_33kernel_logic_always_placed_on_cpu
FN:143,_RNvNtNtCsiImZfhoGHOe_17compute_scheduler9placement5testss_39small_llm_placed_on_npu_in_battery_mode
FN:131,_RNvNtNtCsiImZfhoGHOe_17compute_scheduler9placement5testss_42large_llm_placed_on_gpu_in_throughput_mode
FN:155,_RNvNtNtCsiImZfhoGHOe_17compute_scheduler9placement5testss_44placement_fails_if_required_hardware_missing
FN:32,_RNvMNtCsiImZfhoGHOe_17compute_scheduler9placementNtB2_15PlacementPolicy15allowed_targets
FN:26,_RNvMNtCsiImZfhoGHOe_17compute_scheduler9placementNtB2_15PlacementPolicy3new
FN:51,_RNvMNtCsiImZfhoGHOe_17compute_scheduler9placementNtB2_15PlacementPolicy5place
FNDA:0,_RNCNvMNtCsd7MoEgYx7bU_17compute_scheduler9placementNtB4_15PlacementPolicy5place0B6_
FNDA:0,_RNvMNtCsd7MoEgYx7bU_17compute_scheduler9placementNtB2_15PlacementPolicy15allowed_targets
FNDA:0,_RNvMNtCsd7MoEgYx7bU_17compute_scheduler9placementNtB2_15PlacementPolicy3new
FNDA:0,_RNvMNtCsd7MoEgYx7bU_17compute_scheduler9placementNtB2_15PlacementPolicy5place
FNDA:13,_RNCNvMNtCsiImZfhoGHOe_17compute_scheduler9placementNtB4_15PlacementPolicy5place0B6_
FNDA:3,_RNvNtNtCsiImZfhoGHOe_17compute_scheduler9placement5tests14dummy_profiles
FNDA:1,_RNvNtNtCsiImZfhoGHOe_17compute_scheduler9placement5testss_33kernel_logic_always_placed_on_cpu
FNDA:1,_RNvNtNtCsiImZfhoGHOe_17compute_scheduler9placement5testss_39small_llm_placed_on_npu_in_battery_mode
FNDA:1,_RNvNtNtCsiImZfhoGHOe_17compute_scheduler9placement5testss_42large_llm_placed_on_gpu_in_throughput_mode
FNDA:1,_RNvNtNtCsiImZfhoGHOe_17compute_scheduler9placement5testss_44placement_fails_if_required_hardware_missing
FNDA:4,_RNvMNtCsiImZfhoGHOe_17compute_scheduler9placementNtB2_15PlacementPolicy15allowed_targets
FNDA:4,_RNvMNtCsiImZfhoGHOe_17compute_scheduler9placementNtB2_15PlacementPolicy3new
FNDA:4,_RNvMNtCsiImZfhoGHOe_17compute_scheduler9placementNtB2_15PlacementPolicy5place
FNF:9
FNH:9
DA:26,4
DA:27,4
DA:28,4
DA:32,4
DA:33,4
DA:35,1
DA:37,1
DA:39,2
DA:41,0
DA:43,4
DA:51,4
DA:52,4
DA:53,4
DA:54,4
DA:55,4
DA:56,4
DA:59,4
DA:60,4
DA:61,13
DA:62,4
DA:63,4
DA:65,4
DA:66,1
DA:67,1
DA:68,3
DA:71,3
DA:72,3
DA:74,3
DA:75,4
DA:83,3
DA:84,3
DA:85,3
DA:86,3
DA:87,3
DA:88,3
DA:89,3
DA:90,3
DA:91,3
DA:92,3
DA:93,3
DA:94,3
DA:95,3
DA:96,3
DA:97,3
DA:98,3
DA:99,3
DA:100,3
DA:101,3
DA:102,3
DA:103,3
DA:104,3
DA:105,3
DA:106,3
DA:107,3
DA:108,3
DA:109,3
DA:110,3
DA:111,3
DA:112,3
DA:113,3
DA:114,3
DA:115,3
DA:116,3
DA:118,3
DA:121,1
DA:122,1
DA:123,1
DA:124,1
DA:126,1
DA:127,1
DA:128,1
DA:131,1
DA:133,1
DA:134,1
DA:135,1
DA:136,1
DA:138,1
DA:139,1
DA:140,1
DA:143,1
DA:145,1
DA:146,1
DA:147,1
DA:148,1
DA:150,1
DA:151,1
DA:152,1
DA:155,1
DA:156,1
DA:157,1
DA:159,1
DA:160,1
DA:161,1
DA:162,1
DA:163,1
DA:164,1
DA:165,1
DA:166,1
DA:169,1
DA:170,1
DA:171,1
BRF:0
BRH:0
LF:102
LH:101
end_of_record
SF:/home/lokis/Documents/AI-Native-Kernel/crates/compute-scheduler/src/weights.rs
FN:27,_RNvMNtCsd7MoEgYx7bU_17compute_scheduler7weightsNtB2_15AdaptiveWeights3new
FN:47,_RNvMNtCsd7MoEgYx7bU_17compute_scheduler7weightsNtB2_15AdaptiveWeights7observe
FN:37,_RNvMNtCsd7MoEgYx7bU_17compute_scheduler7weightsNtB2_15AdaptiveWeights9from_mode
FN:73,_RNvXs_NtCsd7MoEgYx7bU_17compute_scheduler7weightsNtB4_15AdaptiveWeightsNtNtCs13ARFDxRLcQ_4core7default7Default7default
FN:84,_RNvNtNtCsiImZfhoGHOe_17compute_scheduler7weights5testss_23mode_presets_sum_to_one
FN:97,_RNvNtNtCsiImZfhoGHOe_17compute_scheduler7weights5testss_33observe_zero_total_sample_is_noop
FN:111,_RNvNtNtCsiImZfhoGHOe_17compute_scheduler7weights5testss_48observe_moves_weights_toward_sample_distribution
FN:27,_RNvMNtCsiImZfhoGHOe_17compute_scheduler7weightsNtB2_15AdaptiveWeights3new
FN:47,_RNvMNtCsiImZfhoGHOe_17compute_scheduler7weightsNtB2_15AdaptiveWeights7observe
FN:37,_RNvMNtCsiImZfhoGHOe_17compute_scheduler7weightsNtB2_15AdaptiveWeights9from_mode
FN:73,_RNvXs_NtCsiImZfhoGHOe_17compute_scheduler7weightsNtB4_15AdaptiveWeightsNtNtCs13ARFDxRLcQ_4core7default7Default7default
FNDA:10,_RNvMNtCsd7MoEgYx7bU_17compute_scheduler7weightsNtB2_15AdaptiveWeights3new
FNDA:100,_RNvMNtCsd7MoEgYx7bU_17compute_scheduler7weightsNtB2_15AdaptiveWeights7observe
FNDA:10,_RNvMNtCsd7MoEgYx7bU_17compute_scheduler7weightsNtB2_15AdaptiveWeights9from_mode
FNDA:7,_RNvXs_NtCsd7MoEgYx7bU_17compute_scheduler7weightsNtB4_15AdaptiveWeightsNtNtCs13ARFDxRLcQ_4core7default7Default7default
FNDA:1,_RNvNtNtCsiImZfhoGHOe_17compute_scheduler7weights5testss_23mode_presets_sum_to_one
FNDA:1,_RNvNtNtCsiImZfhoGHOe_17compute_scheduler7weights5testss_33observe_zero_total_sample_is_noop
FNDA:1,_RNvNtNtCsiImZfhoGHOe_17compute_scheduler7weights5testss_48observe_moves_weights_toward_sample_distribution
FNDA:19,_RNvMNtCsiImZfhoGHOe_17compute_scheduler7weightsNtB2_15AdaptiveWeights3new
FNDA:32,_RNvMNtCsiImZfhoGHOe_17compute_scheduler7weightsNtB2_15AdaptiveWeights7observe
FNDA:16,_RNvMNtCsiImZfhoGHOe_17compute_scheduler7weightsNtB2_15AdaptiveWeights9from_mode
FNDA:11,_RNvXs_NtCsiImZfhoGHOe_17compute_scheduler7weightsNtB4_15AdaptiveWeightsNtNtCs13ARFDxRLcQ_4core7default7Default7default
FNF:7
FNH:7
DA:27,29
DA:28,29
DA:29,29
DA:30,29
DA:31,29
DA:32,29
DA:33,29
DA:37,26
DA:38,26
DA:39,2
DA:40,23
DA:41,1
DA:43,26
DA:47,132
DA:48,132
DA:49,132
DA:50,132
DA:51,1
DA:52,131
DA:54,131
DA:55,131
DA:56,131
DA:58,131
DA:59,131
DA:60,131
DA:62,131
DA:63,131
DA:64,131
DA:65,131
DA:66,131
DA:67,131
DA:68,132
DA:73,18
DA:74,18
DA:75,18
DA:84,1
DA:85,3
DA:86,1
DA:87,1
DA:88,1
DA:89,1
DA:90,3
DA:91,3
DA:92,3
DA:94,1
DA:97,1
DA:98,1
DA:99,1
DA:101,1
DA:102,1
DA:103,1
DA:104,1
DA:105,1
DA:107,1
DA:108,1
DA:111,1
DA:112,1
DA:113,1
DA:114,1
DA:115,1
DA:116,1
DA:117,1
DA:119,1
DA:120,1
DA:121,1
DA:122,1
DA:123,1
BRF:0
BRH:0
LF:67
LH:67
end_of_record
SF:/home/lokis/Documents/AI-Native-Kernel/crates/context-memory/src/cold.rs
FN:30,_RNvMNtCsicngV8Db2Ex_14context_memory4coldNtB2_9ColdStore3get
FN:36,_RNvMNtCsicngV8Db2Ex_14context_memory4coldNtB2_9ColdStore3len
FN:16,_RNvMNtCsicngV8Db2Ex_14context_memory4coldNtB2_9ColdStore3new
FN:21,_RNvMNtCsicngV8Db2Ex_14context_memory4coldNtB2_9ColdStore6insert
FN:48,_RNvMNtCsicngV8Db2Ex_14context_memory4coldNtB2_9ColdStore6remove
FN:42,_RNvMNtCsicngV8Db2Ex_14context_memory4coldNtB2_9ColdStore8is_empty
FN:50,_RNCNvMNtCsicngV8Db2Ex_14context_memory4coldNtB4_9ColdStore6remove0B6_
FN:36,_RNvMNtCsbIqEPOi2h5Y_14context_memory4coldNtB2_9ColdStore3len
FN:42,_RNvMNtCsbIqEPOi2h5Y_14context_memory4coldNtB2_9ColdStore8is_empty
FN:30,_RNvMNtCsbIqEPOi2h5Y_14context_memory4coldNtB2_9ColdStore3get
FN:16,_RNvMNtCsbIqEPOi2h5Y_14context_memory4coldNtB2_9ColdStore3new
FN:21,_RNvMNtCsbIqEPOi2h5Y_14context_memory4coldNtB2_9ColdStore6insert
FN:48,_RNvMNtCsbIqEPOi2h5Y_14context_memory4coldNtB2_9ColdStore6remove
FN:50,_RNCNvMNtCsbIqEPOi2h5Y_14context_memory4coldNtB4_9ColdStore6remove0B6_
FNDA:5,_RNvMNtCsicngV8Db2Ex_14context_memory4coldNtB2_9ColdStore3get
FNDA:0,_RNvMNtCsicngV8Db2Ex_14context_memory4coldNtB2_9ColdStore3len
FNDA:47,_RNvMNtCsicngV8Db2Ex_14context_memory4coldNtB2_9ColdStore3new
FNDA:3,_RNvMNtCsicngV8Db2Ex_14context_memory4coldNtB2_9ColdStore6insert
FNDA:2,_RNvMNtCsicngV8Db2Ex_14context_memory4coldNtB2_9ColdStore6remove
FNDA:0,_RNvMNtCsicngV8Db2Ex_14context_memory4coldNtB2_9ColdStore8is_empty
FNDA:0,_RNCNvMNtCsicngV8Db2Ex_14context_memory4coldNtB4_9ColdStore6remove0B6_
FNDA:0,_RNvMNtCsbIqEPOi2h5Y_14context_memory4coldNtB2_9ColdStore3len
FNDA:0,_RNvMNtCsbIqEPOi2h5Y_14context_memory4coldNtB2_9ColdStore8is_empty
FNDA:4,_RNvMNtCsbIqEPOi2h5Y_14context_memory4coldNtB2_9ColdStore3get
FNDA:15,_RNvMNtCsbIqEPOi2h5Y_14context_memory4coldNtB2_9ColdStore3new
FNDA:2,_RNvMNtCsbIqEPOi2h5Y_14context_memory4coldNtB2_9ColdStore6insert
FNDA:2,_RNvMNtCsbIqEPOi2h5Y_14context_memory4coldNtB2_9ColdStore6remove
FNDA:1,_RNCNvMNtCsbIqEPOi2h5Y_14context_memory4coldNtB4_9ColdStore6remove0B6_
FNF:7
FNH:5
DA:16,62
DA:17,62
DA:18,62
DA:21,5
DA:22,5
DA:23,5
DA:24,5
DA:25,5
DA:26,5
DA:30,9
DA:31,9
DA:32,9
DA:36,0
DA:37,0
DA:38,0
DA:42,0
DA:43,0
DA:44,0
DA:48,4
DA:49,4
DA:50,1
DA:51,1
DA:53,3
DA:55,4
BRF:0
BRH:0
LF:25
LH:19
end_of_record
SF:/home/lokis/Documents/AI-Native-Kernel/crates/context-memory/src/fs.rs
FN:159,_RNCNvMNtCsicngV8Db2Ex_14context_memory2fsNtB4_18SemanticFileSystem18generate_embedding0B6_
FN:166,_RNCNvMNtCsicngV8Db2Ex_14context_memory2fsNtB4_18SemanticFileSystem18generate_embeddings_0B6_
FN:132,_RNCNvMNtCsbIqEPOi2h5Y_14context_memory2fsNtB4_18SemanticFileSystem12search_files0B6_
FN:132,_RNvMNtCsbIqEPOi2h5Y_14context_memory2fsNtB2_18SemanticFileSystem12search_files
FN:50,_RNvMNtCsbIqEPOi2h5Y_14context_memory2fsNtB2_18SemanticFileSystem10write_file
FN:98,_RNvMNtCsbIqEPOi2h5Y_14context_memory2fsNtB2_18SemanticFileSystem11delete_file
FN:115,_RNvMNtCsbIqEPOi2h5Y_14context_memory2fsNtB2_18SemanticFileSystem12search_paths
FN:151,_RNvMNtCsbIqEPOi2h5Y_14context_memory2fsNtB2_18SemanticFileSystem18generate_embedding
FN:89,_RNvMNtCsbIqEPOi2h5Y_14context_memory2fsNtB2_18SemanticFileSystem9read_file
FN:32,_RINvMNtCsbIqEPOi2h5Y_14context_memory2fsNtB3_18SemanticFileSystem3newRNtNtCs3Hx2NU1n1SL_3std4path7PathBufEB5_
FN:36,_RNCINvMNtCsbIqEPOi2h5Y_14context_memory2fsNtB5_18SemanticFileSystem3newRNtNtCs3Hx2NU1n1SL_3std4path7PathBufE0B7_
FN:50,_RNCNvMNtCsbIqEPOi2h5Y_14context_memory2fsNtB4_18SemanticFileSystem10write_file0B6_
FN:98,_RNCNvMNtCsbIqEPOi2h5Y_14context_memory2fsNtB4_18SemanticFileSystem11delete_file0B6_
FN:115,_RNCNvMNtCsbIqEPOi2h5Y_14context_memory2fsNtB4_18SemanticFileSystem12search_paths0B6_
FN:159,_RNCNvMNtCsbIqEPOi2h5Y_14context_memory2fsNtB4_18SemanticFileSystem18generate_embedding0B6_
FN:166,_RNCNvMNtCsbIqEPOi2h5Y_14context_memory2fsNtB4_18SemanticFileSystem18generate_embeddings_0B6_
FN:89,_RNCNvMNtCsbIqEPOi2h5Y_14context_memory2fsNtB4_18SemanticFileSystem9read_file0B6_
FN:319,_RNCNCNvNtNtCsbIqEPOi2h5Y_14context_memory2fs5testss_29generate_embedding_large_text00B9_
FN:293,_RNCNCNvNtNtCsbIqEPOi2h5Y_14context_memory2fs5testss_44generate_embedding_multi_word_is_unit_vector00B9_
FN:284,_RNCNCNvNtNtCsbIqEPOi2h5Y_14context_memory2fs5testss_45generate_embedding_single_word_is_unit_vector00B9_
FN:183,_RNCNvNtNtCsbIqEPOi2h5Y_14context_memory2fs5tests10qdrant_url0B7_
FN:196,_RNCNvNtNtCsbIqEPOi2h5Y_14context_memory2fs5tests16qdrant_host_port0B7_
FN:204,_RNCNvNtNtCsbIqEPOi2h5Y_14context_memory2fs5tests16qdrant_host_ports0_0B7_
FN:201,_RNCNvNtNtCsbIqEPOi2h5Y_14context_memory2fs5tests16qdrant_host_ports_0B7_
FN:209,_RNCNvNtNtCsbIqEPOi2h5Y_14context_memory2fs5tests19check_qdrant_online0B7_
FN:256,_RNCNvNtNtCsbIqEPOi2h5Y_14context_memory2fs5testss_26new_creates_base_directory0B7_
FN:315,_RNCNvNtNtCsbIqEPOi2h5Y_14context_memory2fs5testss_29generate_embedding_large_text0B7_
FN:298,_RNCNvNtNtCsbIqEPOi2h5Y_14context_memory2fs5testss_32generate_embedding_deterministic0B7_
FN:327,_RNCNvNtNtCsbIqEPOi2h5Y_14context_memory2fs5testss_36test_semantic_file_system_operations0B7_
FN:267,_RNCNvNtNtCsbIqEPOi2h5Y_14context_memory2fs5testss_37generate_embedding_has_correct_length0B7_
FN:307,_RNCNvNtNtCsbIqEPOi2h5Y_14context_memory2fs5testss_41generate_embedding_different_texts_differ0B7_
FN:274,_RNCNvNtNtCsbIqEPOi2h5Y_14context_memory2fs5testss_43generate_embedding_empty_text_returns_zeros0B7_
FN:290,_RNCNvNtNtCsbIqEPOi2h5Y_14context_memory2fs5testss_44generate_embedding_multi_word_is_unit_vector0B7_
FN:281,_RNCNvNtNtCsbIqEPOi2h5Y_14context_memory2fs5testss_45generate_embedding_single_word_is_unit_vector0B7_
FN:182,_RNvNtNtCsbIqEPOi2h5Y_14context_memory2fs5tests10qdrant_url
FN:186,_RNvNtNtCsbIqEPOi2h5Y_14context_memory2fs5tests16qdrant_host_port
FN:209,_RNvNtNtCsbIqEPOi2h5Y_14context_memory2fs5tests19check_qdrant_online
FN:249,_RNvNtNtCsbIqEPOi2h5Y_14context_memory2fs5tests8make_sfs
FN:256,_RNvNtNtCsbIqEPOi2h5Y_14context_memory2fs5testss_26new_creates_base_directory
FN:219,_RNvNtNtCsbIqEPOi2h5Y_14context_memory2fs5testss_26semantic_file_construction
FN:315,_RNvNtNtCsbIqEPOi2h5Y_14context_memory2fs5testss_29generate_embedding_large_text
FN:298,_RNvNtNtCsbIqEPOi2h5Y_14context_memory2fs5testss_32generate_embedding_deterministic
FN:231,_RNvNtNtCsbIqEPOi2h5Y_14context_memory2fs5testss_34semantic_file_ordering_independent
FN:327,_RNvNtNtCsbIqEPOi2h5Y_14context_memory2fs5testss_36test_semantic_file_system_operations
FN:267,_RNvNtNtCsbIqEPOi2h5Y_14context_memory2fs5testss_37generate_embedding_has_correct_length
FN:307,_RNvNtNtCsbIqEPOi2h5Y_14context_memory2fs5testss_41generate_embedding_different_texts_differ
FN:274,_RNvNtNtCsbIqEPOi2h5Y_14context_memory2fs5testss_43generate_embedding_empty_text_returns_zeros
FN:290,_RNvNtNtCsbIqEPOi2h5Y_14context_memory2fs5testss_44generate_embedding_multi_word_is_unit_vector
FN:281,_RNvNtNtCsbIqEPOi2h5Y_14context_memory2fs5testss_45generate_embedding_single_word_is_unit_vector
FNDA:0,_RNCNvMNtCsicngV8Db2Ex_14context_memory2fsNtB4_18SemanticFileSystem18generate_embedding0B6_
FNDA:0,_RNCNvMNtCsicngV8Db2Ex_14context_memory2fsNtB4_18SemanticFileSystem18generate_embeddings_0B6_
FNDA:0,_RNCNvMNtCsbIqEPOi2h5Y_14context_memory2fsNtB4_18SemanticFileSystem12search_files0B6_
FNDA:0,_RNvMNtCsbIqEPOi2h5Y_14context_memory2fsNtB2_18SemanticFileSystem12search_files
FNDA:0,_RNvMNtCsbIqEPOi2h5Y_14context_memory2fsNtB2_18SemanticFileSystem10write_file
FNDA:0,_RNvMNtCsbIqEPOi2h5Y_14context_memory2fsNtB2_18SemanticFileSystem11delete_file
FNDA:0,_RNvMNtCsbIqEPOi2h5Y_14context_memory2fsNtB2_18SemanticFileSystem12search_paths
FNDA:9,_RNvMNtCsbIqEPOi2h5Y_14context_memory2fsNtB2_18SemanticFileSystem18generate_embedding
FNDA:0,_RNvMNtCsbIqEPOi2h5Y_14context_memory2fsNtB2_18SemanticFileSystem9read_file
FNDA:1,_RINvMNtCsbIqEPOi2h5Y_14context_memory2fsNtB3_18SemanticFileSystem3newRNtNtCs3Hx2NU1n1SL_3std4path7PathBufEB5_
FNDA:1,_RNCINvMNtCsbIqEPOi2h5Y_14context_memory2fsNtB5_18SemanticFileSystem3newRNtNtCs3Hx2NU1n1SL_3std4path7PathBufE0B7_
FNDA:0,_RNCNvMNtCsbIqEPOi2h5Y_14context_memory2fsNtB4_18SemanticFileSystem10write_file0B6_
FNDA:0,_RNCNvMNtCsbIqEPOi2h5Y_14context_memory2fsNtB4_18SemanticFileSystem11delete_file0B6_
FNDA:0,_RNCNvMNtCsbIqEPOi2h5Y_14context_memory2fsNtB4_18SemanticFileSystem12search_paths0B6_
FNDA:4086,_RNCNvMNtCsbIqEPOi2h5Y_14context_memory2fsNtB4_18SemanticFileSystem18generate_embedding0B6_
FNDA:232,_RNCNvMNtCsbIqEPOi2h5Y_14context_memory2fsNtB4_18SemanticFileSystem18generate_embeddings_0B6_
FNDA:0,_RNCNvMNtCsbIqEPOi2h5Y_14context_memory2fsNtB4_18SemanticFileSystem9read_file0B6_
FNDA:64,_RNCNCNvNtNtCsbIqEPOi2h5Y_14context_memory2fs5testss_29generate_embedding_large_text00B9_
FNDA:16,_RNCNCNvNtNtCsbIqEPOi2h5Y_14context_memory2fs5testss_44generate_embedding_multi_word_is_unit_vector00B9_
FNDA:16,_RNCNCNvNtNtCsbIqEPOi2h5Y_14context_memory2fs5testss_45generate_embedding_single_word_is_unit_vector00B9_
FNDA:0,_RNCNvNtNtCsbIqEPOi2h5Y_14context_memory2fs5tests10qdrant_url0B7_
FNDA:0,_RNCNvNtNtCsbIqEPOi2h5Y_14context_memory2fs5tests16qdrant_host_port0B7_
FNDA:0,_RNCNvNtNtCsbIqEPOi2h5Y_14context_memory2fs5tests16qdrant_host_ports0_0B7_
FNDA:0,_RNCNvNtNtCsbIqEPOi2h5Y_14context_memory2fs5tests16qdrant_host_ports_0B7_
FNDA:0,_RNCNvNtNtCsbIqEPOi2h5Y_14context_memory2fs5tests19check_qdrant_online0B7_
FNDA:1,_RNCNvNtNtCsbIqEPOi2h5Y_14context_memory2fs5testss_26new_creates_base_directory0B7_
FNDA:1,_RNCNvNtNtCsbIqEPOi2h5Y_14context_memory2fs5testss_29generate_embedding_large_text0B7_
FNDA:1,_RNCNvNtNtCsbIqEPOi2h5Y_14context_memory2fs5testss_32generate_embedding_deterministic0B7_
FNDA:0,_RNCNvNtNtCsbIqEPOi2h5Y_14context_memory2fs5testss_36test_semantic_file_system_operations0B7_
FNDA:1,_RNCNvNtNtCsbIqEPOi2h5Y_14context_memory2fs5testss_37generate_embedding_has_correct_length0B7_
FNDA:1,_RNCNvNtNtCsbIqEPOi2h5Y_14context_memory2fs5testss_41generate_embedding_different_texts_differ0B7_
FNDA:1,_RNCNvNtNtCsbIqEPOi2h5Y_14context_memory2fs5testss_43generate_embedding_empty_text_returns_zeros0B7_
FNDA:1,_RNCNvNtNtCsbIqEPOi2h5Y_14context_memory2fs5testss_44generate_embedding_multi_word_is_unit_vector0B7_
FNDA:1,_RNCNvNtNtCsbIqEPOi2h5Y_14context_memory2fs5testss_45generate_embedding_single_word_is_unit_vector0B7_
FNDA:0,_RNvNtNtCsbIqEPOi2h5Y_14context_memory2fs5tests10qdrant_url
FNDA:0,_RNvNtNtCsbIqEPOi2h5Y_14context_memory2fs5tests16qdrant_host_port
FNDA:0,_RNvNtNtCsbIqEPOi2h5Y_14context_memory2fs5tests19check_qdrant_online
FNDA:7,_RNvNtNtCsbIqEPOi2h5Y_14context_memory2fs5tests8make_sfs
FNDA:1,_RNvNtNtCsbIqEPOi2h5Y_14context_memory2fs5testss_26new_creates_base_directory
FNDA:1,_RNvNtNtCsbIqEPOi2h5Y_14context_memory2fs5testss_26semantic_file_construction
FNDA:1,_RNvNtNtCsbIqEPOi2h5Y_14context_memory2fs5testss_29generate_embedding_large_text
FNDA:1,_RNvNtNtCsbIqEPOi2h5Y_14context_memory2fs5testss_32generate_embedding_deterministic
FNDA:1,_RNvNtNtCsbIqEPOi2h5Y_14context_memory2fs5testss_34semantic_file_ordering_independent
FNDA:0,_RNvNtNtCsbIqEPOi2h5Y_14context_memory2fs5testss_36test_semantic_file_system_operations
FNDA:1,_RNvNtNtCsbIqEPOi2h5Y_14context_memory2fs5testss_37generate_embedding_has_correct_length
FNDA:1,_RNvNtNtCsbIqEPOi2h5Y_14context_memory2fs5testss_41generate_embedding_different_texts_differ
FNDA:1,_RNvNtNtCsbIqEPOi2h5Y_14context_memory2fs5testss_43generate_embedding_empty_text_returns_zeros
FNDA:1,_RNvNtNtCsbIqEPOi2h5Y_14context_memory2fs5testss_44generate_embedding_multi_word_is_unit_vector
FNDA:1,_RNvNtNtCsbIqEPOi2h5Y_14context_memory2fs5testss_45generate_embedding_single_word_is_unit_vector
FNF:47
FNH:27
DA:32,1
DA:33,1
DA:34,1
DA:35,1
DA:36,1
DA:37,1
DA:38,1
DA:39,1
DA:40,1
DA:42,1
DA:43,1
DA:44,1
DA:45,1
DA:46,1
DA:47,1
DA:50,0
DA:51,0
DA:54,0
DA:55,0
DA:56,0
DA:57,0
DA:58,0
DA:61,0
DA:62,0
DA:63,0
DA:66,0
DA:69,0
DA:70,0
DA:71,0
DA:72,0
DA:73,0
DA:75,0
DA:78,0
DA:79,0
DA:80,0
DA:81,0
DA:82,0
DA:83,0
DA:85,0
DA:86,0
DA:89,0
DA:90,0
DA:91,0
DA:92,0
DA:93,0
DA:94,0
DA:95,0
DA:98,0
DA:99,0
DA:100,0
DA:101,0
DA:102,0
DA:103,0
DA:104,0
DA:107,0
DA:108,0
DA:109,0
DA:111,0
DA:112,0
DA:115,0
DA:116,0
DA:117,0
DA:118,0
DA:119,0
DA:120,0
DA:122,0
DA:123,0
DA:124,0
DA:125,0
DA:126,0
DA:128,0
DA:129,0
DA:132,0
DA:133,0
DA:134,0
DA:136,0
DA:137,0
DA:138,0
DA:139,0
DA:140,0
DA:141,0
DA:142,0
DA:143,0
DA:144,0
DA:147,0
DA:148,0
DA:151,9
DA:152,9
DA:153,9
DA:154,1
DA:155,8
DA:157,1019
DA:159,4086
DA:160,4086
DA:161,4086
DA:162,1019
DA:163,1019
DA:166,232
DA:167,8
DA:168,8
DA:169,232
DA:170,232
DA:171,232
DA:172,0
DA:173,8
DA:174,9
DA:182,0
DA:183,0
DA:184,0
DA:186,0
DA:187,0
DA:188,0
DA:189,0
DA:190,0
DA:191,0
DA:192,0
DA:193,0
DA:194,0
DA:195,0
DA:196,0
DA:197,0
DA:198,0
DA:199,0
DA:201,0
DA:202,0
DA:203,0
DA:204,0
DA:205,0
DA:206,0
DA:207,0
DA:209,0
DA:210,0
DA:211,0
DA:212,0
DA:213,0
DA:214,0
DA:219,1
DA:220,1
DA:221,1
DA:222,1
DA:223,1
DA:224,1
DA:225,1
DA:226,1
DA:227,1
DA:228,1
DA:231,1
DA:232,1
DA:233,1
DA:234,1
DA:235,1
DA:236,1
DA:237,1
DA:238,1
DA:239,1
DA:240,1
DA:241,1
DA:243,1
DA:245,1
DA:246,1
DA:249,7
DA:250,7
DA:251,7
DA:252,7
DA:253,7
DA:256,1
DA:257,1
DA:258,1
DA:259,1
DA:260,1
DA:261,1
DA:262,1
DA:263,1
DA:264,1
DA:267,1
DA:268,1
DA:269,1
DA:270,1
DA:271,1
DA:274,1
DA:275,1
DA:276,1
DA:277,1
DA:278,1
DA:281,1
DA:282,1
DA:283,1
DA:284,16
DA:286,1
DA:287,1
DA:290,1
DA:291,1
DA:292,1
DA:293,16
DA:294,1
DA:295,1
DA:298,1
DA:299,1
DA:300,1
DA:301,1
DA:302,1
DA:303,1
DA:304,1
DA:307,1
DA:308,1
DA:309,1
DA:310,1
DA:311,1
DA:312,1
DA:315,1
DA:316,1
DA:317,1
DA:318,1
DA:319,64
DA:320,1
DA:321,1
DA:327,0
DA:328,0
DA:329,0
DA:331,0
DA:333,0
DA:334,0
DA:336,0
DA:337,0
DA:338,0
DA:341,0
DA:342,0
DA:343,0
DA:344,0
DA:345,0
DA:346,0
DA:347,0
DA:348,0
DA:349,0
DA:350,0
DA:353,0
DA:354,0
DA:355,0
DA:356,0
DA:357,0
DA:360,0
DA:361,0
DA:364,0
DA:365,0
DA:367,0
DA:370,0
DA:371,0
DA:372,0
BRF:0
BRH:0
LF:282
LH:136
end_of_record
SF:/home/lokis/Documents/AI-Native-Kernel/crates/context-memory/src/hot.rs
FN:30,_RNvMNtCsicngV8Db2Ex_14context_memory3hotNtB2_8HotStore12contains_key
FN:54,_RNvMNtCsicngV8Db2Ex_14context_memory3hotNtB2_8HotStore12evict_oldest
FN:36,_RNvMNtCsicngV8Db2Ex_14context_memory3hotNtB2_8HotStore3get
FN:42,_RNvMNtCsicngV8Db2Ex_14context_memory3hotNtB2_8HotStore3len
FN:16,_RNvMNtCsicngV8Db2Ex_14context_memory3hotNtB2_8HotStore3new
FN:21,_RNvMNtCsicngV8Db2Ex_14context_memory3hotNtB2_8HotStore6insert
FN:61,_RNvMNtCsicngV8Db2Ex_14context_memory3hotNtB2_8HotStore6remove
FN:48,_RNvMNtCsicngV8Db2Ex_14context_memory3hotNtB2_8HotStore8is_empty
FN:56,_RNCNvMNtCsicngV8Db2Ex_14context_memory3hotNtB4_8HotStore12evict_oldest0B6_
FN:63,_RNCNvMNtCsicngV8Db2Ex_14context_memory3hotNtB4_8HotStore6remove0B6_
FN:48,_RNvMNtCsbIqEPOi2h5Y_14context_memory3hotNtB2_8HotStore8is_empty
FN:30,_RNvMNtCsbIqEPOi2h5Y_14context_memory3hotNtB2_8HotStore12contains_key
FN:54,_RNvMNtCsbIqEPOi2h5Y_14context_memory3hotNtB2_8HotStore12evict_oldest
FN:36,_RNvMNtCsbIqEPOi2h5Y_14context_memory3hotNtB2_8HotStore3get
FN:42,_RNvMNtCsbIqEPOi2h5Y_14context_memory3hotNtB2_8HotStore3len
FN:16,_RNvMNtCsbIqEPOi2h5Y_14context_memory3hotNtB2_8HotStore3new
FN:21,_RNvMNtCsbIqEPOi2h5Y_14context_memory3hotNtB2_8HotStore6insert
FN:61,_RNvMNtCsbIqEPOi2h5Y_14context_memory3hotNtB2_8HotStore6remove
FN:56,_RNCNvMNtCsbIqEPOi2h5Y_14context_memory3hotNtB4_8HotStore12evict_oldest0B6_
FN:63,_RNCNvMNtCsbIqEPOi2h5Y_14context_memory3hotNtB4_8HotStore6remove0B6_
FNDA:32,_RNvMNtCsicngV8Db2Ex_14context_memory3hotNtB2_8HotStore12contains_key
FNDA:13,_RNvMNtCsicngV8Db2Ex_14context_memory3hotNtB2_8HotStore12evict_oldest
FNDA:10028,_RNvMNtCsicngV8Db2Ex_14context_memory3hotNtB2_8HotStore3get
FNDA:32,_RNvMNtCsicngV8Db2Ex_14context_memory3hotNtB2_8HotStore3len
FNDA:47,_RNvMNtCsicngV8Db2Ex_14context_memory3hotNtB2_8HotStore3new
FNDA:32,_RNvMNtCsicngV8Db2Ex_14context_memory3hotNtB2_8HotStore6insert
FNDA:3,_RNvMNtCsicngV8Db2Ex_14context_memory3hotNtB2_8HotStore6remove
FNDA:0,_RNvMNtCsicngV8Db2Ex_14context_memory3hotNtB2_8HotStore8is_empty
FNDA:13,_RNCNvMNtCsicngV8Db2Ex_14context_memory3hotNtB4_8HotStore12evict_oldest0B6_
FNDA:2,_RNCNvMNtCsicngV8Db2Ex_14context_memory3hotNtB4_8HotStore6remove0B6_
FNDA:0,_RNvMNtCsbIqEPOi2h5Y_14context_memory3hotNtB2_8HotStore8is_empty
FNDA:281,_RNvMNtCsbIqEPOi2h5Y_14context_memory3hotNtB2_8HotStore12contains_key
FNDA:9,_RNvMNtCsbIqEPOi2h5Y_14context_memory3hotNtB2_8HotStore12evict_oldest
FNDA:34,_RNvMNtCsbIqEPOi2h5Y_14context_memory3hotNtB2_8HotStore3get
FNDA:281,_RNvMNtCsbIqEPOi2h5Y_14context_memory3hotNtB2_8HotStore3len
FNDA:15,_RNvMNtCsbIqEPOi2h5Y_14context_memory3hotNtB2_8HotStore3new
FNDA:281,_RNvMNtCsbIqEPOi2h5Y_14context_memory3hotNtB2_8HotStore6insert
FNDA:2,_RNvMNtCsbIqEPOi2h5Y_14context_memory3hotNtB2_8HotStore6remove
FNDA:9,_RNCNvMNtCsbIqEPOi2h5Y_14context_memory3hotNtB4_8HotStore12evict_oldest0B6_
FNDA:1,_RNCNvMNtCsbIqEPOi2h5Y_14context_memory3hotNtB4_8HotStore6remove0B6_
FNF:10
FNH:9
DA:16,62
DA:17,62
DA:18,62
DA:21,313
DA:22,313
DA:23,311
DA:24,311
DA:25,313
DA:26,313
DA:30,313
DA:31,313
DA:32,313
DA:36,10062
DA:37,10062
DA:38,10062
DA:42,313
DA:43,313
DA:44,313
DA:48,0
DA:49,0
DA:50,0
DA:54,22
DA:55,22
DA:56,22
DA:57,22
DA:61,5
DA:62,5
DA:63,3
DA:64,3
DA:66,2
DA:68,5
BRF:0
BRH:0
LF:33
LH:30
end_of_record
SF:/home/lokis/Documents/AI-Native-Kernel/crates/context-memory/src/lib.rs
FN:257,_RNvMCsicngV8Db2Ex_14context_memoryNtB2_20ContextMemoryManager13clean_expired
FN:61,_RNvMCsicngV8Db2Ex_14context_memoryNtB2_20ContextMemoryManager13with_capacity
FN:125,_RNvMCsicngV8Db2Ex_14context_memoryNtB2_20ContextMemoryManager3get
FN:54,_RNvMCsicngV8Db2Ex_14context_memoryNtB2_20ContextMemoryManager3new
FN:204,_RNvMCsicngV8Db2Ex_14context_memoryNtB2_20ContextMemoryManager6demote
FN:167,_RNvMCsicngV8Db2Ex_14context_memoryNtB2_20ContextMemoryManager7promote
FN:223,_RNvMCsicngV8Db2Ex_14context_memoryNtB2_20ContextMemoryManager7tier_of
FN:286,_RNvXs_CsicngV8Db2Ex_14context_memoryNtB4_20ContextMemoryManagerNtNtCs13ARFDxRLcQ_4core7default7Default7default
FN:76,_RINvMCsicngV8Db2Ex_14context_memoryNtB3_20ContextMemoryManager3putNtNtCs72dgD6uzVEf_5alloc6string6StringEB3_
FN:262,_RNCNvMCsicngV8Db2Ex_14context_memoryNtB4_20ContextMemoryManager13clean_expired0B4_
FN:263,_RNCNvMCsicngV8Db2Ex_14context_memoryNtB4_20ContextMemoryManager13clean_expireds_0B4_
FN:296,_RNvNtCsbIqEPOi2h5Y_14context_memory5testss_22put_and_get_round_trip
FN:461,_RNvNtCsbIqEPOi2h5Y_14context_memory5testss_27promote_already_hot_is_noop
FN:348,_RNvNtCsbIqEPOi2h5Y_14context_memory5testss_29get_empty_byte_slice_is_valid
FN:322,_RNvNtCsbIqEPOi2h5Y_14context_memory5testss_29multiple_keys_are_independent
FN:388,_RNvNtCsbIqEPOi2h5Y_14context_memory5testss_29promote_respects_hot_capacity
FN:402,_RNvNtCsbIqEPOi2h5Y_14context_memory5testss_32demote_from_hot_to_warm_succeeds
FN:371,_RNvNtCsbIqEPOi2h5Y_14context_memory5testss_33promote_from_warm_to_hot_succeeds
FN:449,_RNvNtCsbIqEPOi2h5Y_14context_memory5testss_36demote_nonexistent_returns_not_found
FN:312,_RNvNtCsbIqEPOi2h5Y_14context_memory5testss_36overwrite_updates_value_in_hot_store
FN:455,_RNvNtCsbIqEPOi2h5Y_14context_memory5testss_36tier_of_returns_none_for_missing_key
FN:305,_RNvNtCsbIqEPOi2h5Y_14context_memory5testss_37get_returns_not_found_for_missing_key
FN:443,_RNvNtCsbIqEPOi2h5Y_14context_memory5testss_37promote_nonexistent_returns_not_found
FN:422,_RNvNtCsbIqEPOi2h5Y_14context_memory5testss_40property_round_trip_hot_to_cold_and_back
FN:358,_RNvNtCsbIqEPOi2h5Y_14context_memory5testss_40with_capacity_controls_eviction_boundary
FN:334,_RNvNtCsbIqEPOi2h5Y_14context_memory5testss_43eviction_to_warm_when_hot_capacity_exceeded
FN:262,_RNCNvMCsbIqEPOi2h5Y_14context_memoryNtB4_20ContextMemoryManager13clean_expired0B4_
FN:263,_RNCNvMCsbIqEPOi2h5Y_14context_memoryNtB4_20ContextMemoryManager13clean_expireds_0B4_
FN:257,_RNvMCsbIqEPOi2h5Y_14context_memoryNtB2_20ContextMemoryManager13clean_expired
FN:286,_RNvXs_CsbIqEPOi2h5Y_14context_memoryNtB4_20ContextMemoryManagerNtNtCs13ARFDxRLcQ_4core7default7Default7default
FN:61,_RNvMCsbIqEPOi2h5Y_14context_memoryNtB2_20ContextMemoryManager13with_capacity
FN:125,_RNvMCsbIqEPOi2h5Y_14context_memoryNtB2_20ContextMemoryManager3get
FN:54,_RNvMCsbIqEPOi2h5Y_14context_memoryNtB2_20ContextMemoryManager3new
FN:204,_RNvMCsbIqEPOi2h5Y_14context_memoryNtB2_20ContextMemoryManager6demote
FN:167,_RNvMCsbIqEPOi2h5Y_14context_memoryNtB2_20ContextMemoryManager7promote
FN:223,_RNvMCsbIqEPOi2h5Y_14context_memoryNtB2_20ContextMemoryManager7tier_of
FN:76,_RINvMCsbIqEPOi2h5Y_14context_memoryNtB3_20ContextMemoryManager3putNtNtCs72dgD6uzVEf_5alloc6string6StringEB3_
FN:76,_RINvMCsbIqEPOi2h5Y_14context_memoryNtB3_20ContextMemoryManager3putReEB3_
FN:76,_RINvMCsicngV8Db2Ex_14context_memoryNtB3_20ContextMemoryManager3putReECslwgpIslheeX_11integration
FN:76,_RINvMCsicngV8Db2Ex_14context_memoryNtB3_20ContextMemoryManager3putReECshJ7ADVmgvQo_11perf_budget
FN:76,_RINvMCsicngV8Db2Ex_14context_memoryNtB3_20ContextMemoryManager3putRNtNtCs72dgD6uzVEf_5alloc6string6StringECscMnwIHTVX4e_8pipeline
FN:76,_RINvMCsicngV8Db2Ex_14context_memoryNtB3_20ContextMemoryManager3putReECscMnwIHTVX4e_8pipeline
FNDA:1,_RNvMCsicngV8Db2Ex_14context_memoryNtB2_20ContextMemoryManager13clean_expired
FNDA:47,_RNvMCsicngV8Db2Ex_14context_memoryNtB2_20ContextMemoryManager13with_capacity
FNDA:10018,_RNvMCsicngV8Db2Ex_14context_memoryNtB2_20ContextMemoryManager3get
FNDA:40,_RNvMCsicngV8Db2Ex_14context_memoryNtB2_20ContextMemoryManager3new
FNDA:2,_RNvMCsicngV8Db2Ex_14context_memoryNtB2_20ContextMemoryManager6demote
FNDA:2,_RNvMCsicngV8Db2Ex_14context_memoryNtB2_20ContextMemoryManager7promote
FNDA:8,_RNvMCsicngV8Db2Ex_14context_memoryNtB2_20ContextMemoryManager7tier_of
FNDA:0,_RNvXs_CsicngV8Db2Ex_14context_memoryNtB4_20ContextMemoryManagerNtNtCs13ARFDxRLcQ_4core7default7Default7default
FNDA:8,_RINvMCsicngV8Db2Ex_14context_memoryNtB3_20ContextMemoryManager3putNtNtCs72dgD6uzVEf_5alloc6string6StringEB3_
FNDA:1,_RNCNvMCsicngV8Db2Ex_14context_memoryNtB4_20ContextMemoryManager13clean_expired0B4_
FNDA:1,_RNCNvMCsicngV8Db2Ex_14context_memoryNtB4_20ContextMemoryManager13clean_expireds_0B4_
FNDA:1,_RNvNtCsbIqEPOi2h5Y_14context_memory5testss_22put_and_get_round_trip
FNDA:1,_RNvNtCsbIqEPOi2h5Y_14context_memory5testss_27promote_already_hot_is_noop
FNDA:1,_RNvNtCsbIqEPOi2h5Y_14context_memory5testss_29get_empty_byte_slice_is_valid
FNDA:1,_RNvNtCsbIqEPOi2h5Y_14context_memory5testss_29multiple_keys_are_independent
FNDA:1,_RNvNtCsbIqEPOi2h5Y_14context_memory5testss_29promote_respects_hot_capacity
FNDA:1,_RNvNtCsbIqEPOi2h5Y_14context_memory5testss_32demote_from_hot_to_warm_succeeds
FNDA:1,_RNvNtCsbIqEPOi2h5Y_14context_memory5testss_33promote_from_warm_to_hot_succeeds
FNDA:1,_RNvNtCsbIqEPOi2h5Y_14context_memory5testss_36demote_nonexistent_returns_not_found
FNDA:1,_RNvNtCsbIqEPOi2h5Y_14context_memory5testss_36overwrite_updates_value_in_hot_store
FNDA:1,_RNvNtCsbIqEPOi2h5Y_14context_memory5testss_36tier_of_returns_none_for_missing_key
FNDA:1,_RNvNtCsbIqEPOi2h5Y_14context_memory5testss_37get_returns_not_found_for_missing_key
FNDA:1,_RNvNtCsbIqEPOi2h5Y_14context_memory5testss_37promote_nonexistent_returns_not_found
FNDA:1,_RNvNtCsbIqEPOi2h5Y_14context_memory5testss_40property_round_trip_hot_to_cold_and_back
FNDA:1,_RNvNtCsbIqEPOi2h5Y_14context_memory5testss_40with_capacity_controls_eviction_boundary
FNDA:1,_RNvNtCsbIqEPOi2h5Y_14context_memory5testss_43eviction_to_warm_when_hot_capacity_exceeded
FNDA:0,_RNCNvMCsbIqEPOi2h5Y_14context_memoryNtB4_20ContextMemoryManager13clean_expired0B4_
FNDA:0,_RNCNvMCsbIqEPOi2h5Y_14context_memoryNtB4_20ContextMemoryManager13clean_expireds_0B4_
FNDA:0,_RNvMCsbIqEPOi2h5Y_14context_memoryNtB2_20ContextMemoryManager13clean_expired
FNDA:0,_RNvXs_CsbIqEPOi2h5Y_14context_memoryNtB4_20ContextMemoryManagerNtNtCs13ARFDxRLcQ_4core7default7Default7default
FNDA:15,_RNvMCsbIqEPOi2h5Y_14context_memoryNtB2_20ContextMemoryManager13with_capacity
FNDA:13,_RNvMCsbIqEPOi2h5Y_14context_memoryNtB2_20ContextMemoryManager3get
FNDA:11,_RNvMCsbIqEPOi2h5Y_14context_memoryNtB2_20ContextMemoryManager3new
FNDA:2,_RNvMCsbIqEPOi2h5Y_14context_memoryNtB2_20ContextMemoryManager6demote
FNDA:5,_RNvMCsbIqEPOi2h5Y_14context_memoryNtB2_20ContextMemoryManager7promote
FNDA:16,_RNvMCsbIqEPOi2h5Y_14context_memoryNtB2_20ContextMemoryManager7tier_of
FNDA:260,_RINvMCsbIqEPOi2h5Y_14context_memoryNtB3_20ContextMemoryManager3putNtNtCs72dgD6uzVEf_5alloc6string6StringEB3_
FNDA:21,_RINvMCsbIqEPOi2h5Y_14context_memoryNtB3_20ContextMemoryManager3putReEB3_
FNDA:15,_RINvMCsicngV8Db2Ex_14context_memoryNtB3_20ContextMemoryManager3putReECslwgpIslheeX_11integration
FNDA:1,_RINvMCsicngV8Db2Ex_14context_memoryNtB3_20ContextMemoryManager3putReECshJ7ADVmgvQo_11perf_budget
FNDA:5,_RINvMCsicngV8Db2Ex_14context_memoryNtB3_20ContextMemoryManager3putRNtNtCs72dgD6uzVEf_5alloc6string6StringECscMnwIHTVX4e_8pipeline
FNDA:3,_RINvMCsicngV8Db2Ex_14context_memoryNtB3_20ContextMemoryManager3putReECscMnwIHTVX4e_8pipeline
FNF:26
FNH:25
DA:54,51
DA:55,51
DA:56,51
DA:61,62
DA:62,62
DA:63,62
DA:64,62
DA:65,62
DA:66,62
DA:67,62
DA:68,62
DA:69,62
DA:70,62
DA:76,313
DA:77,313
DA:78,313
DA:79,313
DA:80,313
DA:81,313
DA:82,311
DA:83,311
DA:84,311
DA:85,311
DA:86,311
DA:87,311
DA:88,311
DA:89,313
DA:92,313
DA:93,22
DA:94,22
DA:96,22
DA:97,22
DA:98,22
DA:99,22
DA:102,22
DA:103,5
DA:104,5
DA:106,5
DA:107,5
DA:108,5
DA:109,5
DA:110,5
DA:111,5
DA:112,0
DA:113,17
DA:114,0
DA:115,291
DA:116,313
DA:125,10031
DA:127,10031
DA:128,10017
DA:129,10017
DA:130,14
DA:133,14
DA:134,14
DA:135,14
DA:136,14
DA:137,14
DA:139,8
DA:140,8
DA:141,6
DA:144,6
DA:145,6
DA:146,6
DA:147,6
DA:148,6
DA:150,4
DA:151,4
DA:152,2
DA:154,2
DA:155,2
DA:156,10031
DA:167,7
DA:169,7
DA:170,7
DA:171,7
DA:172,7
DA:173,7
DA:174,7
DA:176,1
DA:177,1
DA:178,6
DA:180,6
DA:181,6
DA:182,3
DA:183,3
DA:184,3
DA:185,3
DA:187,3
DA:188,3
DA:189,1
DA:190,1
DA:191,1
DA:192,2
DA:193,2
DA:194,2
DA:195,7
DA:204,4
DA:205,4
DA:206,4
DA:207,2
DA:208,2
DA:209,2
DA:210,2
DA:211,2
DA:212,2
DA:213,2
DA:214,2
DA:215,2
DA:216,4
DA:223,24
DA:224,24
DA:225,24
DA:226,24
DA:227,24
DA:228,24
DA:229,24
DA:231,14
DA:232,10
DA:233,10
DA:234,10
DA:235,10
DA:236,10
DA:237,10
DA:238,10
DA:240,7
DA:241,3
DA:242,3
DA:243,3
DA:244,3
DA:245,3
DA:246,3
DA:247,3
DA:249,1
DA:250,2
DA:251,2
DA:252,24
DA:257,1
DA:258,1
DA:259,1
DA:260,1
DA:261,1
DA:262,1
DA:263,1
DA:264,1
DA:265,1
DA:267,1
DA:268,1
DA:269,0
DA:270,1
DA:272,1
DA:273,1
DA:274,1
DA:275,1
DA:276,1
DA:277,1
DA:278,1
DA:280,1
DA:281,1
DA:282,1
DA:286,0
DA:287,0
DA:288,0
DA:296,1
DA:297,1
DA:298,1
DA:300,1
DA:301,1
DA:302,1
DA:305,1
DA:306,1
DA:307,1
DA:308,1
DA:309,1
DA:312,1
DA:313,1
DA:314,1
DA:315,1
DA:317,1
DA:318,1
DA:319,1
DA:322,1
DA:323,1
DA:324,1
DA:325,1
DA:326,1
DA:328,1
DA:329,1
DA:330,1
DA:331,1
DA:334,1
DA:335,1
DA:336,1
DA:337,257
DA:338,257
DA:339,257
DA:340,1
DA:341,1
DA:342,1
DA:345,1
DA:348,1
DA:349,1
DA:350,1
DA:351,1
DA:352,1
DA:353,1
DA:358,1
DA:359,1
DA:360,1
DA:361,1
DA:362,1
DA:363,1
DA:364,1
DA:365,1
DA:366,1
DA:367,1
DA:368,1
DA:371,1
DA:372,1
DA:373,1
DA:374,1
DA:375,1
DA:376,1
DA:378,1
DA:379,1
DA:380,1
DA:381,1
DA:382,1
DA:385,1
DA:388,1
DA:389,1
DA:390,1
DA:391,1
DA:392,1
DA:394,1
DA:396,1
DA:397,1
DA:398,1
DA:399,1
DA:402,1
DA:403,1
DA:404,1
DA:405,1
DA:407,1
DA:408,1
DA:409,1
DA:413,1
DA:414,1
DA:415,1
DA:417,1
DA:422,1
DA:423,1
DA:424,1
DA:425,1
DA:426,1
DA:428,1
DA:429,1
DA:430,1
DA:432,1
DA:437,1
DA:438,1
DA:439,1
DA:440,1
DA:443,1
DA:444,1
DA:445,1
DA:446,1
DA:449,1
DA:450,1
DA:451,1
DA:452,1
DA:455,1
DA:456,1
DA:457,1
DA:458,1
DA:461,1
DA:462,1
DA:463,1
DA:464,1
DA:465,1
DA:466,1
DA:467,1
DA:468,1
BRF:0
BRH:0
LF:285
LH:279
end_of_record
SF:/home/lokis/Documents/AI-Native-Kernel/crates/context-memory/src/p2p_mesh.rs
FN:17,_RNCNvNtCsicngV8Db2Ex_14context_memory8p2p_mesh10now_millis0B5_
FN:146,_RNCNCNvMNtCsbIqEPOi2h5Y_14context_memory8p2p_meshNtB6_14P2PMeshManager15connect_to_peer00B8_
FN:110,_RNCNCNvMNtCsbIqEPOi2h5Y_14context_memory8p2p_meshNtB6_14P2PMeshManager15get_alive_peers00B8_
FN:211,_RNCNCNvNtCsbIqEPOi2h5Y_14context_memory8p2p_mesh10on_message00B7_
FN:219,_RNCNCNvNtCsbIqEPOi2h5Y_14context_memory8p2p_mesh10on_message0s_0B7_
FN:289,_RNCNCNvNtCsbIqEPOi2h5Y_14context_memory8p2p_mesh17handle_connection00B7_
FN:360,_RNCNCNvNtCsbIqEPOi2h5Y_14context_memory8p2p_mesh17handle_connection0s0_0B7_
FN:373,_RNCNCNvNtCsbIqEPOi2h5Y_14context_memory8p2p_mesh17handle_connection0s1_0B7_
FN:302,_RNCNCNvNtCsbIqEPOi2h5Y_14context_memory8p2p_mesh17handle_connection0s_0B7_
FN:88,_RNCNvMNtCsbIqEPOi2h5Y_14context_memory8p2p_meshNtB4_14P2PMeshManager11remove_node0B6_
FN:97,_RNCNvMNtCsbIqEPOi2h5Y_14context_memory8p2p_meshNtB4_14P2PMeshManager12is_connected0B6_
FN:93,_RNCNvMNtCsbIqEPOi2h5Y_14context_memory8p2p_meshNtB4_14P2PMeshManager13get_neighbors0B6_
FN:139,_RNCNvMNtCsbIqEPOi2h5Y_14context_memory8p2p_meshNtB4_14P2PMeshManager15connect_to_peer0B6_
FN:105,_RNCNvMNtCsbIqEPOi2h5Y_14context_memory8p2p_meshNtB4_14P2PMeshManager15get_alive_peers0B6_
FN:155,_RNCNvMNtCsbIqEPOi2h5Y_14context_memory8p2p_meshNtB4_14P2PMeshManager16gossip_neighbors0B6_
FN:84,_RNCNvMNtCsbIqEPOi2h5Y_14context_memory8p2p_meshNtB4_14P2PMeshManager8add_node0B6_
FN:17,_RNCNvNtCsbIqEPOi2h5Y_14context_memory8p2p_mesh10now_millis0B5_
FN:205,_RNCNvNtCsbIqEPOi2h5Y_14context_memory8p2p_mesh10on_message0B5_
FN:234,_RNCNvNtCsbIqEPOi2h5Y_14context_memory8p2p_mesh17handle_connection0B5_
FN:130,_RNCNCNvMNtCsbIqEPOi2h5Y_14context_memory8p2p_meshNtB6_14P2PMeshManager14start_listener00B8_
FN:116,_RNCNvMNtCsbIqEPOi2h5Y_14context_memory8p2p_meshNtB4_14P2PMeshManager14start_listener0B6_
FN:178,_RNCNvMNtCsbIqEPOi2h5Y_14context_memory8p2p_meshNtB4_14P2PMeshManager17start_gossip_loop0B6_
FN:116,_RNvMNtCsbIqEPOi2h5Y_14context_memory8p2p_meshNtB2_14P2PMeshManager14start_listener
FN:178,_RNvMNtCsbIqEPOi2h5Y_14context_memory8p2p_meshNtB2_14P2PMeshManager17start_gossip_loop
FN:401,_RNvNtNtCsbIqEPOi2h5Y_14context_memory8p2p_mesh5tests9make_node
FN:397,_RNvNtNtCsbIqEPOi2h5Y_14context_memory8p2p_mesh5tests9test_addr
FN:454,_RNvNtNtCsbIqEPOi2h5Y_14context_memory8p2p_mesh5testss_19manager_remove_node
FN:665,_RNvNtNtCsbIqEPOi2h5Y_14context_memory8p2p_mesh5testss_23node_info_serialization
FN:560,_RNvNtNtCsbIqEPOi2h5Y_14context_memory8p2p_mesh5testss_23two_nodes_tcp_handshake
FN:599,_RNvNtNtCsbIqEPOi2h5Y_14context_memory8p2p_mesh5testss_27gossip_propagates_neighbors
FN:464,_RNvNtNtCsbIqEPOi2h5Y_14context_memory8p2p_mesh5testss_27manager_is_connected_recent
FN:435,_RNvNtNtCsbIqEPOi2h5Y_14context_memory8p2p_mesh5testss_27manager_new_sets_local_node
FN:493,_RNvNtNtCsbIqEPOi2h5Y_14context_memory8p2p_mesh5testss_27p2p_message_serde_roundtrip
FN:420,_RNvNtNtCsbIqEPOi2h5Y_14context_memory8p2p_mesh5testss_28is_alive_recent_returns_true
FN:426,_RNvNtNtCsbIqEPOi2h5Y_14context_memory8p2p_mesh5testss_28is_alive_stale_returns_false
FN:472,_RNvNtNtCsbIqEPOi2h5Y_14context_memory8p2p_mesh5testss_28manager_is_connected_unknown
FN:510,_RNvNtNtCsbIqEPOi2h5Y_14context_memory8p2p_mesh5testss_28on_message_updates_last_seen
FN:443,_RNvNtNtCsbIqEPOi2h5Y_14context_memory8p2p_mesh5testss_29manager_add_and_get_neighbors
FN:411,_RNvNtNtCsbIqEPOi2h5Y_14context_memory8p2p_mesh5testss_35now_millis_returns_reasonable_value
FN:653,_RNvNtNtCsbIqEPOi2h5Y_14context_memory8p2p_mesh5testss_36connect_to_unreachable_returns_error
FN:478,_RNvNtNtCsbIqEPOi2h5Y_14context_memory8p2p_mesh5testss_37manager_get_alive_peers_filters_stale
FN:533,_RNvNtNtCsbIqEPOi2h5Y_14context_memory8p2p_mesh5testss_41on_message_with_neighborlist_merges_nodes
FN:573,_RNCNCNCNvNtNtCsbIqEPOi2h5Y_14context_memory8p2p_mesh5testss_23two_nodes_tcp_handshake000Bb_
FN:611,_RNCNCNCNvNtNtCsbIqEPOi2h5Y_14context_memory8p2p_mesh5testss_27gossip_propagates_neighbors000Bb_
FN:628,_RNCNCNCNvNtNtCsbIqEPOi2h5Y_14context_memory8p2p_mesh5testss_27gossip_propagates_neighbors0s_00Bb_
FN:569,_RNCNCNvNtNtCsbIqEPOi2h5Y_14context_memory8p2p_mesh5testss_23two_nodes_tcp_handshake00B9_
FN:607,_RNCNCNvNtNtCsbIqEPOi2h5Y_14context_memory8p2p_mesh5testss_27gossip_propagates_neighbors00B9_
FN:647,_RNCNCNvNtNtCsbIqEPOi2h5Y_14context_memory8p2p_mesh5testss_27gossip_propagates_neighbors0s0_0B9_
FN:624,_RNCNCNvNtNtCsbIqEPOi2h5Y_14context_memory8p2p_mesh5testss_27gossip_propagates_neighbors0s_0B9_
FN:454,_RNCNvNtNtCsbIqEPOi2h5Y_14context_memory8p2p_mesh5testss_19manager_remove_node0B7_
FN:665,_RNCNvNtNtCsbIqEPOi2h5Y_14context_memory8p2p_mesh5testss_23node_info_serialization0B7_
FN:560,_RNCNvNtNtCsbIqEPOi2h5Y_14context_memory8p2p_mesh5testss_23two_nodes_tcp_handshake0B7_
FN:599,_RNCNvNtNtCsbIqEPOi2h5Y_14context_memory8p2p_mesh5testss_27gossip_propagates_neighbors0B7_
FN:464,_RNCNvNtNtCsbIqEPOi2h5Y_14context_memory8p2p_mesh5testss_27manager_is_connected_recent0B7_
FN:435,_RNCNvNtNtCsbIqEPOi2h5Y_14context_memory8p2p_mesh5testss_27manager_new_sets_local_node0B7_
FN:493,_RNCNvNtNtCsbIqEPOi2h5Y_14context_memory8p2p_mesh5testss_27p2p_message_serde_roundtrip0B7_
FN:420,_RNCNvNtNtCsbIqEPOi2h5Y_14context_memory8p2p_mesh5testss_28is_alive_recent_returns_true0B7_
FN:426,_RNCNvNtNtCsbIqEPOi2h5Y_14context_memory8p2p_mesh5testss_28is_alive_stale_returns_false0B7_
FN:472,_RNCNvNtNtCsbIqEPOi2h5Y_14context_memory8p2p_mesh5testss_28manager_is_connected_unknown0B7_
FN:510,_RNCNvNtNtCsbIqEPOi2h5Y_14context_memory8p2p_mesh5testss_28on_message_updates_last_seen0B7_
FN:443,_RNCNvNtNtCsbIqEPOi2h5Y_14context_memory8p2p_mesh5testss_29manager_add_and_get_neighbors0B7_
FN:411,_RNCNvNtNtCsbIqEPOi2h5Y_14context_memory8p2p_mesh5testss_35now_millis_returns_reasonable_value0B7_
FN:653,_RNCNvNtNtCsbIqEPOi2h5Y_14context_memory8p2p_mesh5testss_36connect_to_unreachable_returns_error0B7_
FN:478,_RNCNvNtNtCsbIqEPOi2h5Y_14context_memory8p2p_mesh5testss_37manager_get_alive_peers_filters_stale0B7_
FN:533,_RNCNvNtNtCsbIqEPOi2h5Y_14context_memory8p2p_mesh5testss_41on_message_with_neighborlist_merges_nodes0B7_
FN:88,_RNvMNtCsbIqEPOi2h5Y_14context_memory8p2p_meshNtB2_14P2PMeshManager11remove_node
FN:97,_RNvMNtCsbIqEPOi2h5Y_14context_memory8p2p_meshNtB2_14P2PMeshManager12is_connected
FN:93,_RNvMNtCsbIqEPOi2h5Y_14context_memory8p2p_meshNtB2_14P2PMeshManager13get_neighbors
FN:139,_RNvMNtCsbIqEPOi2h5Y_14context_memory8p2p_meshNtB2_14P2PMeshManager15connect_to_peer
FN:105,_RNvMNtCsbIqEPOi2h5Y_14context_memory8p2p_meshNtB2_14P2PMeshManager15get_alive_peers
FN:155,_RNvMNtCsbIqEPOi2h5Y_14context_memory8p2p_meshNtB2_14P2PMeshManager16gossip_neighbors
FN:63,_RNvMNtCsbIqEPOi2h5Y_14context_memory8p2p_meshNtB2_14P2PMeshManager3new
FN:84,_RNvMNtCsbIqEPOi2h5Y_14context_memory8p2p_meshNtB2_14P2PMeshManager8add_node
FN:14,_RNvNtCsbIqEPOi2h5Y_14context_memory8p2p_mesh10now_millis
FN:201,_RNvNtCsbIqEPOi2h5Y_14context_memory8p2p_mesh10on_message
FN:229,_RNvNtCsbIqEPOi2h5Y_14context_memory8p2p_mesh17handle_connection
FN:58,_RNvNtCsbIqEPOi2h5Y_14context_memory8p2p_mesh8is_alive
FNDA:0,_RNCNvNtCsicngV8Db2Ex_14context_memory8p2p_mesh10now_millis0B5_
FNDA:2,_RNCNCNvMNtCsbIqEPOi2h5Y_14context_memory8p2p_meshNtB6_14P2PMeshManager15connect_to_peer00B8_
FNDA:7,_RNCNCNvMNtCsbIqEPOi2h5Y_14context_memory8p2p_meshNtB6_14P2PMeshManager15get_alive_peers00B8_
FNDA:3,_RNCNCNvNtCsbIqEPOi2h5Y_14context_memory8p2p_mesh10on_message00B7_
FNDA:3,_RNCNCNvNtCsbIqEPOi2h5Y_14context_memory8p2p_mesh10on_message0s_0B7_
FNDA:2,_RNCNCNvNtCsbIqEPOi2h5Y_14context_memory8p2p_mesh17handle_connection00B7_
FNDA:2,_RNCNCNvNtCsbIqEPOi2h5Y_14context_memory8p2p_mesh17handle_connection0s0_0B7_
FNDA:2,_RNCNCNvNtCsbIqEPOi2h5Y_14context_memory8p2p_mesh17handle_connection0s1_0B7_
FNDA:2,_RNCNCNvNtCsbIqEPOi2h5Y_14context_memory8p2p_mesh17handle_connection0s_0B7_
FNDA:1,_RNCNvMNtCsbIqEPOi2h5Y_14context_memory8p2p_meshNtB4_14P2PMeshManager11remove_node0B6_
FNDA:2,_RNCNvMNtCsbIqEPOi2h5Y_14context_memory8p2p_meshNtB4_14P2PMeshManager12is_connected0B6_
FNDA:3,_RNCNvMNtCsbIqEPOi2h5Y_14context_memory8p2p_meshNtB4_14P2PMeshManager13get_neighbors0B6_
FNDA:3,_RNCNvMNtCsbIqEPOi2h5Y_14context_memory8p2p_meshNtB4_14P2PMeshManager15connect_to_peer0B6_
FNDA:5,_RNCNvMNtCsbIqEPOi2h5Y_14context_memory8p2p_meshNtB4_14P2PMeshManager15get_alive_peers0B6_
FNDA:1,_RNCNvMNtCsbIqEPOi2h5Y_14context_memory8p2p_meshNtB4_14P2PMeshManager16gossip_neighbors0B6_
FNDA:6,_RNCNvMNtCsbIqEPOi2h5Y_14context_memory8p2p_meshNtB4_14P2PMeshManager8add_node0B6_
FNDA:55,_RNCNvNtCsbIqEPOi2h5Y_14context_memory8p2p_mesh10now_millis0B5_
FNDA:3,_RNCNvNtCsbIqEPOi2h5Y_14context_memory8p2p_mesh10on_message0B5_
FNDA:4,_RNCNvNtCsbIqEPOi2h5Y_14context_memory8p2p_mesh17handle_connection0B5_
FNDA:0,_RNCNCNvMNtCsbIqEPOi2h5Y_14context_memory8p2p_meshNtB6_14P2PMeshManager14start_listener00B8_
FNDA:0,_RNCNvMNtCsbIqEPOi2h5Y_14context_memory8p2p_meshNtB4_14P2PMeshManager14start_listener0B6_
FNDA:0,_RNCNvMNtCsbIqEPOi2h5Y_14context_memory8p2p_meshNtB4_14P2PMeshManager17start_gossip_loop0B6_
FNDA:0,_RNvMNtCsbIqEPOi2h5Y_14context_memory8p2p_meshNtB2_14P2PMeshManager14start_listener
FNDA:0,_RNvMNtCsbIqEPOi2h5Y_14context_memory8p2p_meshNtB2_14P2PMeshManager17start_gossip_loop
FNDA:13,_RNvNtNtCsbIqEPOi2h5Y_14context_memory8p2p_mesh5tests9make_node
FNDA:25,_RNvNtNtCsbIqEPOi2h5Y_14context_memory8p2p_mesh5tests9test_addr
FNDA:1,_RNvNtNtCsbIqEPOi2h5Y_14context_memory8p2p_mesh5testss_19manager_remove_node
FNDA:1,_RNvNtNtCsbIqEPOi2h5Y_14context_memory8p2p_mesh5testss_23node_info_serialization
FNDA:1,_RNvNtNtCsbIqEPOi2h5Y_14context_memory8p2p_mesh5testss_23two_nodes_tcp_handshake
FNDA:1,_RNvNtNtCsbIqEPOi2h5Y_14context_memory8p2p_mesh5testss_27gossip_propagates_neighbors
FNDA:1,_RNvNtNtCsbIqEPOi2h5Y_14context_memory8p2p_mesh5testss_27manager_is_connected_recent
FNDA:1,_RNvNtNtCsbIqEPOi2h5Y_14context_memory8p2p_mesh5testss_27manager_new_sets_local_node
FNDA:1,_RNvNtNtCsbIqEPOi2h5Y_14context_memory8p2p_mesh5testss_27p2p_message_serde_roundtrip
FNDA:1,_RNvNtNtCsbIqEPOi2h5Y_14context_memory8p2p_mesh5testss_28is_alive_recent_returns_true
FNDA:1,_RNvNtNtCsbIqEPOi2h5Y_14context_memory8p2p_mesh5testss_28is_alive_stale_returns_false
FNDA:1,_RNvNtNtCsbIqEPOi2h5Y_14context_memory8p2p_mesh5testss_28manager_is_connected_unknown
FNDA:1,_RNvNtNtCsbIqEPOi2h5Y_14context_memory8p2p_mesh5testss_28on_message_updates_last_seen
FNDA:1,_RNvNtNtCsbIqEPOi2h5Y_14context_memory8p2p_mesh5testss_29manager_add_and_get_neighbors
FNDA:1,_RNvNtNtCsbIqEPOi2h5Y_14context_memory8p2p_mesh5testss_35now_millis_returns_reasonable_value
FNDA:1,_RNvNtNtCsbIqEPOi2h5Y_14context_memory8p2p_mesh5testss_36connect_to_unreachable_returns_error
FNDA:1,_RNvNtNtCsbIqEPOi2h5Y_14context_memory8p2p_mesh5testss_37manager_get_alive_peers_filters_stale
FNDA:1,_RNvNtNtCsbIqEPOi2h5Y_14context_memory8p2p_mesh5testss_41on_message_with_neighborlist_merges_nodes
FNDA:1,_RNCNCNCNvNtNtCsbIqEPOi2h5Y_14context_memory8p2p_mesh5testss_23two_nodes_tcp_handshake000Bb_
FNDA:1,_RNCNCNCNvNtNtCsbIqEPOi2h5Y_14context_memory8p2p_mesh5testss_27gossip_propagates_neighbors000Bb_
FNDA:0,_RNCNCNCNvNtNtCsbIqEPOi2h5Y_14context_memory8p2p_mesh5testss_27gossip_propagates_neighbors0s_00Bb_
FNDA:1,_RNCNCNvNtNtCsbIqEPOi2h5Y_14context_memory8p2p_mesh5testss_23two_nodes_tcp_handshake00B9_
FNDA:1,_RNCNCNvNtNtCsbIqEPOi2h5Y_14context_memory8p2p_mesh5testss_27gossip_propagates_neighbors00B9_
FNDA:1,_RNCNCNvNtNtCsbIqEPOi2h5Y_14context_memory8p2p_mesh5testss_27gossip_propagates_neighbors0s0_0B9_
FNDA:1,_RNCNCNvNtNtCsbIqEPOi2h5Y_14context_memory8p2p_mesh5testss_27gossip_propagates_neighbors0s_0B9_
FNDA:1,_RNCNvNtNtCsbIqEPOi2h5Y_14context_memory8p2p_mesh5testss_19manager_remove_node0B7_
FNDA:1,_RNCNvNtNtCsbIqEPOi2h5Y_14context_memory8p2p_mesh5testss_23node_info_serialization0B7_
FNDA:1,_RNCNvNtNtCsbIqEPOi2h5Y_14context_memory8p2p_mesh5testss_23two_nodes_tcp_handshake0B7_
FNDA:1,_RNCNvNtNtCsbIqEPOi2h5Y_14context_memory8p2p_mesh5testss_27gossip_propagates_neighbors0B7_
FNDA:1,_RNCNvNtNtCsbIqEPOi2h5Y_14context_memory8p2p_mesh5testss_27manager_is_connected_recent0B7_
FNDA:1,_RNCNvNtNtCsbIqEPOi2h5Y_14context_memory8p2p_mesh5testss_27manager_new_sets_local_node0B7_
FNDA:1,_RNCNvNtNtCsbIqEPOi2h5Y_14context_memory8p2p_mesh5testss_27p2p_message_serde_roundtrip0B7_
FNDA:1,_RNCNvNtNtCsbIqEPOi2h5Y_14context_memory8p2p_mesh5testss_28is_alive_recent_returns_true0B7_
FNDA:1,_RNCNvNtNtCsbIqEPOi2h5Y_14context_memory8p2p_mesh5testss_28is_alive_stale_returns_false0B7_
FNDA:1,_RNCNvNtNtCsbIqEPOi2h5Y_14context_memory8p2p_mesh5testss_28manager_is_connected_unknown0B7_
FNDA:1,_RNCNvNtNtCsbIqEPOi2h5Y_14context_memory8p2p_mesh5testss_28on_message_updates_last_seen0B7_
FNDA:1,_RNCNvNtNtCsbIqEPOi2h5Y_14context_memory8p2p_mesh5testss_29manager_add_and_get_neighbors0B7_
FNDA:1,_RNCNvNtNtCsbIqEPOi2h5Y_14context_memory8p2p_mesh5testss_35now_millis_returns_reasonable_value0B7_
FNDA:1,_RNCNvNtNtCsbIqEPOi2h5Y_14context_memory8p2p_mesh5testss_36connect_to_unreachable_returns_error0B7_
FNDA:1,_RNCNvNtNtCsbIqEPOi2h5Y_14context_memory8p2p_mesh5testss_37manager_get_alive_peers_filters_stale0B7_
FNDA:1,_RNCNvNtNtCsbIqEPOi2h5Y_14context_memory8p2p_mesh5testss_41on_message_with_neighborlist_merges_nodes0B7_
FNDA:1,_RNvMNtCsbIqEPOi2h5Y_14context_memory8p2p_meshNtB2_14P2PMeshManager11remove_node
FNDA:2,_RNvMNtCsbIqEPOi2h5Y_14context_memory8p2p_meshNtB2_14P2PMeshManager12is_connected
FNDA:3,_RNvMNtCsbIqEPOi2h5Y_14context_memory8p2p_meshNtB2_14P2PMeshManager13get_neighbors
FNDA:3,_RNvMNtCsbIqEPOi2h5Y_14context_memory8p2p_meshNtB2_14P2PMeshManager15connect_to_peer
FNDA:5,_RNvMNtCsbIqEPOi2h5Y_14context_memory8p2p_meshNtB2_14P2PMeshManager15get_alive_peers
FNDA:1,_RNvMNtCsbIqEPOi2h5Y_14context_memory8p2p_meshNtB2_14P2PMeshManager16gossip_neighbors
FNDA:11,_RNvMNtCsbIqEPOi2h5Y_14context_memory8p2p_meshNtB2_14P2PMeshManager3new
FNDA:6,_RNvMNtCsbIqEPOi2h5Y_14context_memory8p2p_meshNtB2_14P2PMeshManager8add_node
FNDA:55,_RNvNtCsbIqEPOi2h5Y_14context_memory8p2p_mesh10now_millis
FNDA:3,_RNvNtCsbIqEPOi2h5Y_14context_memory8p2p_mesh10on_message
FNDA:4,_RNvNtCsbIqEPOi2h5Y_14context_memory8p2p_mesh17handle_connection
FNDA:10,_RNvNtCsbIqEPOi2h5Y_14context_memory8p2p_mesh8is_alive
FNF:76
FNH:70
DA:14,55
DA:15,55
DA:16,55
DA:17,55
DA:18,55
DA:19,55
DA:58,10
DA:59,10
DA:60,10
DA:63,11
DA:64,11
DA:65,11
DA:66,11
DA:67,11
DA:68,11
DA:69,11
DA:70,11
DA:72,11
DA:74,11
DA:75,11
DA:76,11
DA:77,11
DA:78,11
DA:79,11
DA:80,11
DA:81,11
DA:82,11
DA:84,6
DA:85,6
DA:86,6
DA:88,1
DA:89,1
DA:90,1
DA:91,1
DA:93,3
DA:94,3
DA:95,3
DA:97,2
DA:98,2
DA:99,2
DA:100,2
DA:101,2
DA:102,2
DA:103,2
DA:105,5
DA:106,5
DA:107,5
DA:108,5
DA:109,5
DA:110,7
DA:111,5
DA:112,5
DA:113,5
DA:116,0
DA:117,0
DA:118,0
DA:119,0
DA:120,0
DA:121,0
DA:122,0
DA:127,0
DA:128,0
DA:129,0
DA:130,0
DA:131,0
DA:132,0
DA:133,0
DA:134,0
DA:136,0
DA:139,3
DA:140,3
DA:141,3
DA:142,3
DA:143,2
DA:144,2
DA:146,2
DA:147,2
DA:148,0
DA:149,0
DA:150,0
DA:151,2
DA:152,3
DA:155,1
DA:156,1
DA:157,1
DA:158,1
DA:159,1
DA:160,1
DA:161,1
DA:162,1
DA:163,1
DA:164,1
DA:165,1
DA:167,1
DA:168,1
DA:169,1
DA:170,1
DA:171,1
DA:172,1
DA:174,1
DA:175,1
DA:178,0
DA:179,0
DA:180,0
DA:182,0
DA:185,0
DA:186,0
DA:187,0
DA:188,0
DA:201,3
DA:202,3
DA:203,3
DA:204,3
DA:205,3
DA:206,3
DA:207,3
DA:208,3
DA:209,3
DA:210,3
DA:211,3
DA:212,3
DA:213,3
DA:214,3
DA:215,2
DA:216,2
DA:217,3
DA:218,3
DA:219,3
DA:221,3
DA:223,0
DA:224,1
DA:225,0
DA:226,3
DA:229,4
DA:230,4
DA:231,4
DA:232,4
DA:233,4
DA:234,4
DA:235,4
DA:237,4
DA:238,4
DA:239,4
DA:240,4
DA:241,4
DA:242,4
DA:244,4
DA:245,2
DA:246,2
DA:249,2
DA:250,2
DA:251,2
DA:252,0
DA:253,2
DA:256,2
DA:257,2
DA:258,2
DA:259,2
DA:260,2
DA:261,2
DA:262,2
DA:263,2
DA:264,2
DA:265,2
DA:267,2
DA:270,2
DA:271,2
DA:272,2
DA:273,2
DA:274,2
DA:275,2
DA:276,2
DA:277,2
DA:278,2
DA:279,2
DA:280,2
DA:281,2
DA:283,2
DA:284,2
DA:285,2
DA:286,2
DA:287,2
DA:289,2
DA:290,2
DA:291,2
DA:293,3
DA:294,3
DA:295,0
DA:296,1
DA:299,0
DA:300,0
DA:302,2
DA:303,2
DA:304,0
DA:305,0
DA:306,0
DA:307,0
DA:308,0
DA:309,0
DA:310,0
DA:312,0
DA:314,2
DA:316,2
DA:317,2
DA:320,2
DA:321,2
DA:322,2
DA:323,2
DA:324,2
DA:325,2
DA:326,2
DA:327,2
DA:328,2
DA:329,2
DA:330,2
DA:331,2
DA:334,2
DA:335,2
DA:336,2
DA:337,0
DA:338,2
DA:341,2
DA:342,2
DA:343,2
DA:344,2
DA:345,2
DA:346,2
DA:347,2
DA:348,2
DA:349,2
DA:350,2
DA:352,2
DA:354,2
DA:355,2
DA:356,2
DA:357,2
DA:358,2
DA:360,2
DA:361,2
DA:362,2
DA:364,2
DA:365,2
DA:366,0
DA:367,0
DA:370,0
DA:371,0
DA:373,2
DA:374,3
DA:375,1
DA:376,0
DA:377,1
DA:378,1
DA:379,0
DA:380,1
DA:381,1
DA:383,0
DA:385,2
DA:388,0
DA:389,0
DA:397,25
DA:398,25
DA:399,25
DA:401,13
DA:402,13
DA:403,13
DA:404,13
DA:405,13
DA:406,13
DA:407,13
DA:408,13
DA:411,1
DA:412,1
DA:414,1
DA:416,1
DA:417,1
DA:420,1
DA:421,1
DA:422,1
DA:423,1
DA:426,1
DA:427,1
DA:428,1
DA:429,1
DA:430,1
DA:431,1
DA:432,1
DA:435,1
DA:436,1
DA:437,1
DA:438,1
DA:439,1
DA:440,1
DA:443,1
DA:444,1
DA:445,1
DA:446,1
DA:447,1
DA:448,1
DA:449,1
DA:450,1
DA:451,1
DA:454,1
DA:455,1
DA:456,1
DA:457,1
DA:458,1
DA:459,1
DA:460,1
DA:461,1
DA:464,1
DA:465,1
DA:466,1
DA:467,1
DA:468,1
DA:469,1
DA:472,1
DA:473,1
DA:474,1
DA:475,1
DA:478,1
DA:479,1
DA:480,1
DA:481,1
DA:482,1
DA:483,1
DA:484,1
DA:485,1
DA:486,1
DA:487,1
DA:488,1
DA:489,1
DA:490,1
DA:493,1
DA:494,1
DA:495,1
DA:496,1
DA:497,1
DA:498,1
DA:499,1
DA:500,1
DA:501,1
DA:502,1
DA:503,1
DA:504,1
DA:505,1
DA:506,1
DA:507,1
DA:510,1
DA:511,1
DA:512,1
DA:513,1
DA:515,1
DA:516,1
DA:517,1
DA:518,1
DA:519,1
DA:520,1
DA:521,1
DA:522,1
DA:523,1
DA:525,1
DA:526,1
DA:527,1
DA:528,1
DA:529,1
DA:530,1
DA:533,1
DA:534,1
DA:535,1
DA:536,1
DA:537,1
DA:538,1
DA:540,1
DA:541,1
DA:542,1
DA:543,1
DA:544,1
DA:545,1
DA:546,1
DA:547,1
DA:548,1
DA:549,1
DA:550,1
DA:552,1
DA:553,1
DA:554,1
DA:555,1
DA:556,1
DA:557,1
DA:560,1
DA:561,1
DA:562,1
DA:566,1
DA:567,1
DA:568,1
DA:569,1
DA:571,2
DA:572,1
DA:573,1
DA:574,1
DA:575,0
DA:579,1
DA:580,1
DA:583,1
DA:585,1
DA:586,1
DA:587,1
DA:588,1
DA:590,1
DA:592,1
DA:593,1
DA:594,1
DA:595,1
DA:596,1
DA:599,1
DA:600,1
DA:601,1
DA:604,1
DA:605,1
DA:606,1
DA:607,1
DA:609,2
DA:610,1
DA:611,1
DA:612,1
DA:613,0
DA:617,1
DA:618,1
DA:621,1
DA:622,1
DA:623,1
DA:624,1
DA:626,1
DA:627,0
DA:628,0
DA:629,0
DA:630,0
DA:634,1
DA:636,1
DA:637,1
DA:638,1
DA:639,1
DA:640,1
DA:642,1
DA:643,1
DA:645,1
DA:646,1
DA:647,1
DA:648,1
DA:649,1
DA:650,1
DA:653,1
DA:654,1
DA:655,1
DA:658,1
DA:659,1
DA:660,1
DA:661,1
DA:662,1
DA:665,1
DA:666,1
DA:667,1
DA:668,1
DA:669,1
DA:670,1
DA:671,1
DA:672,1
BRF:0
BRH:0
LF:527
LH:466
end_of_record
SF:/home/lokis/Documents/AI-Native-Kernel/crates/context-memory/src/semantic.rs
FN:82,_RNvMNtCsbIqEPOi2h5Y_14context_memory8semanticNtB2_13SemanticStore15search_metadata
FN:17,_RNvMNtCsbIqEPOi2h5Y_14context_memory8semanticNtB2_13SemanticStore3new
FN:116,_RNvMNtCsbIqEPOi2h5Y_14context_memory8semanticNtB2_13SemanticStore6delete
FN:63,_RNvMNtCsbIqEPOi2h5Y_14context_memory8semanticNtB2_13SemanticStore6search
FN:44,_RNvMNtCsbIqEPOi2h5Y_14context_memory8semanticNtB2_13SemanticStore6upsert
FN:140,_RNvMs_NtCsbIqEPOi2h5Y_14context_memory8semanticNtB4_13SemanticStore13test_instance
FN:94,_RNCNCNvMNtCsbIqEPOi2h5Y_14context_memory8semanticNtB6_13SemanticStore15search_metadata00B8_
FN:86,_RNCNvMNtCsbIqEPOi2h5Y_14context_memory8semanticNtB4_13SemanticStore15search_metadata0B6_
FN:17,_RNCNvMNtCsbIqEPOi2h5Y_14context_memory8semanticNtB4_13SemanticStore3new0B6_
FN:116,_RNCNvMNtCsbIqEPOi2h5Y_14context_memory8semanticNtB4_13SemanticStore6delete0B6_
FN:67,_RNCNvMNtCsbIqEPOi2h5Y_14context_memory8semanticNtB4_13SemanticStore6search0B6_
FN:49,_RNCNvMNtCsbIqEPOi2h5Y_14context_memory8semanticNtB4_13SemanticStore6upsert0B6_
FN:154,_RNvNtNtCsbIqEPOi2h5Y_14context_memory8semantic5tests10qdrant_url
FN:158,_RNvNtNtCsbIqEPOi2h5Y_14context_memory8semantic5tests16qdrant_host_port
FN:181,_RNvNtNtCsbIqEPOi2h5Y_14context_memory8semantic5tests19check_qdrant_online
FN:190,_RNvNtNtCsbIqEPOi2h5Y_14context_memory8semantic5testss_26test_qdrant_semantic_store
FN:279,_RNvNtNtCsbIqEPOi2h5Y_14context_memory8semantic5testss_39test_qdrant_semantic_store_empty_search
FN:229,_RNvNtNtCsbIqEPOi2h5Y_14context_memory8semantic5testss_42test_qdrant_semantic_store_multiple_points
FN:215,_RNCNCNvNtNtCsbIqEPOi2h5Y_14context_memory8semantic5testss_26test_qdrant_semantic_store00B9_
FN:218,_RNCNCNvNtNtCsbIqEPOi2h5Y_14context_memory8semantic5testss_26test_qdrant_semantic_store0s_0B9_
FN:264,_RNCNCNvNtNtCsbIqEPOi2h5Y_14context_memory8semantic5testss_42test_qdrant_semantic_store_multiple_points00B9_
FN:267,_RNCNCNvNtNtCsbIqEPOi2h5Y_14context_memory8semantic5testss_42test_qdrant_semantic_store_multiple_points0s_0B9_
FN:155,_RNCNvNtNtCsbIqEPOi2h5Y_14context_memory8semantic5tests10qdrant_url0B7_
FN:168,_RNCNvNtNtCsbIqEPOi2h5Y_14context_memory8semantic5tests16qdrant_host_port0B7_
FN:176,_RNCNvNtNtCsbIqEPOi2h5Y_14context_memory8semantic5tests16qdrant_host_ports0_0B7_
FN:173,_RNCNvNtNtCsbIqEPOi2h5Y_14context_memory8semantic5tests16qdrant_host_ports_0B7_
FN:181,_RNCNvNtNtCsbIqEPOi2h5Y_14context_memory8semantic5tests19check_qdrant_online0B7_
FN:190,_RNCNvNtNtCsbIqEPOi2h5Y_14context_memory8semantic5testss_26test_qdrant_semantic_store0B7_
FN:279,_RNCNvNtNtCsbIqEPOi2h5Y_14context_memory8semantic5testss_39test_qdrant_semantic_store_empty_search0B7_
FN:229,_RNCNvNtNtCsbIqEPOi2h5Y_14context_memory8semantic5testss_42test_qdrant_semantic_store_multiple_points0B7_
FNDA:0,_RNvMNtCsbIqEPOi2h5Y_14context_memory8semanticNtB2_13SemanticStore15search_metadata
FNDA:0,_RNvMNtCsbIqEPOi2h5Y_14context_memory8semanticNtB2_13SemanticStore3new
FNDA:0,_RNvMNtCsbIqEPOi2h5Y_14context_memory8semanticNtB2_13SemanticStore6delete
FNDA:0,_RNvMNtCsbIqEPOi2h5Y_14context_memory8semanticNtB2_13SemanticStore6search
FNDA:0,_RNvMNtCsbIqEPOi2h5Y_14context_memory8semanticNtB2_13SemanticStore6upsert
FNDA:8,_RNvMs_NtCsbIqEPOi2h5Y_14context_memory8semanticNtB4_13SemanticStore13test_instance
FNDA:0,_RNCNCNvMNtCsbIqEPOi2h5Y_14context_memory8semanticNtB6_13SemanticStore15search_metadata00B8_
FNDA:0,_RNCNvMNtCsbIqEPOi2h5Y_14context_memory8semanticNtB4_13SemanticStore15search_metadata0B6_
FNDA:0,_RNCNvMNtCsbIqEPOi2h5Y_14context_memory8semanticNtB4_13SemanticStore3new0B6_
FNDA:0,_RNCNvMNtCsbIqEPOi2h5Y_14context_memory8semanticNtB4_13SemanticStore6delete0B6_
FNDA:0,_RNCNvMNtCsbIqEPOi2h5Y_14context_memory8semanticNtB4_13SemanticStore6search0B6_
FNDA:0,_RNCNvMNtCsbIqEPOi2h5Y_14context_memory8semanticNtB4_13SemanticStore6upsert0B6_
FNDA:0,_RNvNtNtCsbIqEPOi2h5Y_14context_memory8semantic5tests10qdrant_url
FNDA:0,_RNvNtNtCsbIqEPOi2h5Y_14context_memory8semantic5tests16qdrant_host_port
FNDA:0,_RNvNtNtCsbIqEPOi2h5Y_14context_memory8semantic5tests19check_qdrant_online
FNDA:0,_RNvNtNtCsbIqEPOi2h5Y_14context_memory8semantic5testss_26test_qdrant_semantic_store
FNDA:0,_RNvNtNtCsbIqEPOi2h5Y_14context_memory8semantic5testss_39test_qdrant_semantic_store_empty_search
FNDA:0,_RNvNtNtCsbIqEPOi2h5Y_14context_memory8semantic5testss_42test_qdrant_semantic_store_multiple_points
FNDA:0,_RNCNCNvNtNtCsbIqEPOi2h5Y_14context_memory8semantic5testss_26test_qdrant_semantic_store00B9_
FNDA:0,_RNCNCNvNtNtCsbIqEPOi2h5Y_14context_memory8semantic5testss_26test_qdrant_semantic_store0s_0B9_
FNDA:0,_RNCNCNvNtNtCsbIqEPOi2h5Y_14context_memory8semantic5testss_42test_qdrant_semantic_store_multiple_points00B9_
FNDA:0,_RNCNCNvNtNtCsbIqEPOi2h5Y_14context_memory8semantic5testss_42test_qdrant_semantic_store_multiple_points0s_0B9_
FNDA:0,_RNCNvNtNtCsbIqEPOi2h5Y_14context_memory8semantic5tests10qdrant_url0B7_
FNDA:0,_RNCNvNtNtCsbIqEPOi2h5Y_14context_memory8semantic5tests16qdrant_host_port0B7_
FNDA:0,_RNCNvNtNtCsbIqEPOi2h5Y_14context_memory8semantic5tests16qdrant_host_ports0_0B7_
FNDA:0,_RNCNvNtNtCsbIqEPOi2h5Y_14context_memory8semantic5tests16qdrant_host_ports_0B7_
FNDA:0,_RNCNvNtNtCsbIqEPOi2h5Y_14context_memory8semantic5tests19check_qdrant_online0B7_
FNDA:0,_RNCNvNtNtCsbIqEPOi2h5Y_14context_memory8semantic5testss_26test_qdrant_semantic_store0B7_
FNDA:0,_RNCNvNtNtCsbIqEPOi2h5Y_14context_memory8semantic5testss_39test_qdrant_semantic_store_empty_search0B7_
FNDA:0,_RNCNvNtNtCsbIqEPOi2h5Y_14context_memory8semantic5testss_42test_qdrant_semantic_store_multiple_points0B7_
FNF:30
FNH:1
DA:17,0
DA:18,0
DA:21,0
DA:22,0
DA:23,0
DA:24,0
DA:25,0
DA:26,0
DA:27,0
DA:28,0
DA:29,0
DA:30,0
DA:31,0
DA:32,0
DA:33,0
DA:34,0
DA:35,0
DA:37,0
DA:38,0
DA:39,0
DA:40,0
DA:41,0
DA:44,0
DA:45,0
DA:46,0
DA:47,0
DA:48,0
DA:49,0
DA:50,0
DA:51,0
DA:52,0
DA:53,0
DA:54,0
DA:55,0
DA:56,0
DA:57,0
DA:58,0
DA:59,0
DA:60,0
DA:63,0
DA:64,0
DA:65,0
DA:66,0
DA:67,0
DA:68,0
DA:69,0
DA:70,0
DA:71,0
DA:72,0
DA:73,0
DA:74,0
DA:75,0
DA:76,0
DA:77,0
DA:78,0
DA:79,0
DA:82,0
DA:83,0
DA:84,0
DA:85,0
DA:86,0
DA:87,0
DA:88,0
DA:90,0
DA:91,0
DA:92,0
DA:93,0
DA:94,0
DA:96,0
DA:97,0
DA:98,0
DA:101,0
DA:102,0
DA:103,0
DA:104,0
DA:105,0
DA:106,0
DA:107,0
DA:109,0
DA:112,0
DA:113,0
DA:116,0
DA:121,0
DA:122,0
DA:123,0
DA:124,0
DA:125,0
DA:126,0
DA:127,0
DA:128,0
DA:129,0
DA:130,0
DA:131,0
DA:132,0
DA:133,0
DA:134,0
DA:140,8
DA:141,8
DA:142,8
DA:143,8
DA:144,8
DA:145,8
DA:146,8
DA:154,0
DA:155,0
DA:156,0
DA:158,0
DA:159,0
DA:160,0
DA:161,0
DA:162,0
DA:163,0
DA:164,0
DA:165,0
DA:166,0
DA:167,0
DA:168,0
DA:169,0
DA:170,0
DA:171,0
DA:173,0
DA:174,0
DA:175,0
DA:176,0
DA:177,0
DA:178,0
DA:179,0
DA:181,0
DA:182,0
DA:183,0
DA:184,0
DA:185,0
DA:186,0
DA:190,0
DA:191,0
DA:192,0
DA:194,0
DA:196,0
DA:197,0
DA:199,0
DA:201,0
DA:202,0
DA:203,0
DA:205,0
DA:208,0
DA:209,0
DA:211,0
DA:212,0
DA:213,0
DA:214,0
DA:215,0
DA:217,0
DA:218,0
DA:220,0
DA:221,0
DA:223,0
DA:224,0
DA:225,0
DA:229,0
DA:230,0
DA:231,0
DA:233,0
DA:235,0
DA:236,0
DA:238,0
DA:241,0
DA:242,0
DA:243,0
DA:245,0
DA:246,0
DA:247,0
DA:248,0
DA:249,0
DA:250,0
DA:252,0
DA:253,0
DA:254,0
DA:258,0
DA:259,0
DA:261,0
DA:262,0
DA:263,0
DA:264,0
DA:266,0
DA:267,0
DA:269,0
DA:270,0
DA:272,0
DA:274,0
DA:275,0
DA:279,0
DA:280,0
DA:281,0
DA:283,0
DA:285,0
DA:286,0
DA:288,0
DA:291,0
DA:292,0
DA:294,0
DA:295,0
BRF:0
BRH:0
LF:222
LH:7
end_of_record
SF:/home/lokis/Documents/AI-Native-Kernel/crates/context-memory/src/warm.rs
FN:58,_RNCNvMNtCsicngV8Db2Ex_14context_memory4warmNtB4_9WarmStore12evict_oldest0B6_
FN:65,_RNCNvMNtCsicngV8Db2Ex_14context_memory4warmNtB4_9WarmStore6remove0B6_
FN:56,_RNvMNtCsicngV8Db2Ex_14context_memory4warmNtB2_9WarmStore12evict_oldest
FN:39,_RNvMNtCsicngV8Db2Ex_14context_memory4warmNtB2_9WarmStore3get
FN:45,_RNvMNtCsicngV8Db2Ex_14context_memory4warmNtB2_9WarmStore3len
FN:25,_RNvMNtCsicngV8Db2Ex_14context_memory4warmNtB2_9WarmStore3new
FN:30,_RNvMNtCsicngV8Db2Ex_14context_memory4warmNtB2_9WarmStore6insert
FN:63,_RNvMNtCsicngV8Db2Ex_14context_memory4warmNtB2_9WarmStore6remove
FN:51,_RNvMNtCsicngV8Db2Ex_14context_memory4warmNtB2_9WarmStore8is_empty
FN:58,_RNCNvMNtCsbIqEPOi2h5Y_14context_memory4warmNtB4_9WarmStore12evict_oldest0B6_
FN:65,_RNCNvMNtCsbIqEPOi2h5Y_14context_memory4warmNtB4_9WarmStore6remove0B6_
FN:51,_RNvMNtCsbIqEPOi2h5Y_14context_memory4warmNtB2_9WarmStore8is_empty
FN:56,_RNvMNtCsbIqEPOi2h5Y_14context_memory4warmNtB2_9WarmStore12evict_oldest
FN:39,_RNvMNtCsbIqEPOi2h5Y_14context_memory4warmNtB2_9WarmStore3get
FN:45,_RNvMNtCsbIqEPOi2h5Y_14context_memory4warmNtB2_9WarmStore3len
FN:25,_RNvMNtCsbIqEPOi2h5Y_14context_memory4warmNtB2_9WarmStore3new
FN:30,_RNvMNtCsbIqEPOi2h5Y_14context_memory4warmNtB2_9WarmStore6insert
FN:63,_RNvMNtCsbIqEPOi2h5Y_14context_memory4warmNtB2_9WarmStore6remove
FNDA:3,_RNCNvMNtCsicngV8Db2Ex_14context_memory4warmNtB4_9WarmStore12evict_oldest0B6_
FNDA:1,_RNCNvMNtCsicngV8Db2Ex_14context_memory4warmNtB4_9WarmStore6remove0B6_
FNDA:3,_RNvMNtCsicngV8Db2Ex_14context_memory4warmNtB2_9WarmStore12evict_oldest
FNDA:14,_RNvMNtCsicngV8Db2Ex_14context_memory4warmNtB2_9WarmStore3get
FNDA:13,_RNvMNtCsicngV8Db2Ex_14context_memory4warmNtB2_9WarmStore3len
FNDA:47,_RNvMNtCsicngV8Db2Ex_14context_memory4warmNtB2_9WarmStore3new
FNDA:14,_RNvMNtCsicngV8Db2Ex_14context_memory4warmNtB2_9WarmStore6insert
FNDA:3,_RNvMNtCsicngV8Db2Ex_14context_memory4warmNtB2_9WarmStore6remove
FNDA:0,_RNvMNtCsicngV8Db2Ex_14context_memory4warmNtB2_9WarmStore8is_empty
FNDA:2,_RNCNvMNtCsbIqEPOi2h5Y_14context_memory4warmNtB4_9WarmStore12evict_oldest0B6_
FNDA:2,_RNCNvMNtCsbIqEPOi2h5Y_14context_memory4warmNtB4_9WarmStore6remove0B6_
FNDA:0,_RNvMNtCsbIqEPOi2h5Y_14context_memory4warmNtB2_9WarmStore8is_empty
FNDA:2,_RNvMNtCsbIqEPOi2h5Y_14context_memory4warmNtB2_9WarmStore12evict_oldest
FNDA:10,_RNvMNtCsbIqEPOi2h5Y_14context_memory4warmNtB2_9WarmStore3get
FNDA:9,_RNvMNtCsbIqEPOi2h5Y_14context_memory4warmNtB2_9WarmStore3len
FNDA:15,_RNvMNtCsbIqEPOi2h5Y_14context_memory4warmNtB2_9WarmStore3new
FNDA:10,_RNvMNtCsbIqEPOi2h5Y_14context_memory4warmNtB2_9WarmStore6insert
FNDA:4,_RNvMNtCsbIqEPOi2h5Y_14context_memory4warmNtB2_9WarmStore6remove
FNF:9
FNH:8
DA:25,62
DA:26,62
DA:27,62
DA:30,24
DA:31,24
DA:32,24
DA:33,24
DA:34,24
DA:35,24
DA:39,24
DA:40,24
DA:41,24
DA:45,22
DA:46,22
DA:47,22
DA:51,0
DA:52,0
DA:53,0
DA:56,5
DA:57,5
DA:58,5
DA:59,5
DA:63,7
DA:64,7
DA:65,3
DA:66,3
DA:68,4
DA:70,7
BRF:0
BRH:0
LF:30
LH:27
end_of_record
SF:/home/lokis/Documents/AI-Native-Kernel/crates/immune-system/src/bcell.rs
FN:173,_RNCNvNtNtCs4616fWembGs_13immune_system5bcell5testss_19patterns_are_stored0B7_
FN:154,_RNCNvNtNtCs4616fWembGs_13immune_system5bcell5testss_27learn_and_generate_antibody0B7_
FN:165,_RNCNvNtNtCs4616fWembGs_13immune_system5bcell5testss_27no_antibody_below_threshold0B7_
FN:92,_RNCNCNCNvMNtCs4616fWembGs_13immune_system5bcellNtB8_10BCellAgent17generate_antibody000Ba_
FN:115,_RNCNCNCNvMNtCs4616fWembGs_13immune_system5bcellNtB8_10BCellAgent17generate_antibody00s0_0Ba_
FN:140,_RNCNvMNtCs4616fWembGs_13immune_system5bcellNtB4_10BCellAgent12get_patterns0B6_
FN:68,_RNCNvMNtCs4616fWembGs_13immune_system5bcellNtB4_10BCellAgent12learn_threat0B6_
FN:90,_RNCNvMNtCs4616fWembGs_13immune_system5bcellNtB4_10BCellAgent17generate_antibody0B6_
FN:126,_RNCNvMNtCs4616fWembGs_13immune_system5bcellNtB4_10BCellAgent14get_antibodies0B6_
FN:132,_RNCNvMNtCs4616fWembGs_13immune_system5bcellNtB4_10BCellAgent19take_new_antibodies0B6_
FN:126,_RNvMNtCs4616fWembGs_13immune_system5bcellNtB2_10BCellAgent14get_antibodies
FN:132,_RNvMNtCs4616fWembGs_13immune_system5bcellNtB2_10BCellAgent19take_new_antibodies
FN:140,_RNvMNtCs4616fWembGs_13immune_system5bcellNtB2_10BCellAgent12get_patterns
FN:68,_RNvMNtCs4616fWembGs_13immune_system5bcellNtB2_10BCellAgent12learn_threat
FN:90,_RNvMNtCs4616fWembGs_13immune_system5bcellNtB2_10BCellAgent17generate_antibody
FN:58,_RNvMNtCs4616fWembGs_13immune_system5bcellNtB2_10BCellAgent3new
FN:149,_RNvNtNtCs4616fWembGs_13immune_system5bcell5tests10make_bcell
FN:173,_RNvNtNtCs4616fWembGs_13immune_system5bcell5testss_19patterns_are_stored
FN:154,_RNvNtNtCs4616fWembGs_13immune_system5bcell5testss_27learn_and_generate_antibody
FN:165,_RNvNtNtCs4616fWembGs_13immune_system5bcell5testss_27no_antibody_below_threshold
FN:92,_RNCNCNCNvMNtCs7W5lfyF9bYW_13immune_system5bcellNtB8_10BCellAgent17generate_antibody000CseLUTM0PnGP2_16kernel_companion
FN:115,_RNCNCNCNvMNtCs7W5lfyF9bYW_13immune_system5bcellNtB8_10BCellAgent17generate_antibody00s0_0CseLUTM0PnGP2_16kernel_companion
FN:68,_RNCNvMNtCs7W5lfyF9bYW_13immune_system5bcellNtB4_10BCellAgent12learn_threat0CseLUTM0PnGP2_16kernel_companion
FN:90,_RNCNvMNtCs7W5lfyF9bYW_13immune_system5bcellNtB4_10BCellAgent17generate_antibody0CseLUTM0PnGP2_16kernel_companion
FN:132,_RNCNvMNtCs7W5lfyF9bYW_13immune_system5bcellNtB4_10BCellAgent19take_new_antibodies0CseLUTM0PnGP2_16kernel_companion
FN:140,_RNvMNtCs7W5lfyF9bYW_13immune_system5bcellNtB2_10BCellAgent12get_patterns
FN:68,_RNvMNtCs7W5lfyF9bYW_13immune_system5bcellNtB2_10BCellAgent12learn_threat
FN:126,_RNvMNtCs7W5lfyF9bYW_13immune_system5bcellNtB2_10BCellAgent14get_antibodies
FN:90,_RNvMNtCs7W5lfyF9bYW_13immune_system5bcellNtB2_10BCellAgent17generate_antibody
FN:132,_RNvMNtCs7W5lfyF9bYW_13immune_system5bcellNtB2_10BCellAgent19take_new_antibodies
FN:58,_RNvMNtCs7W5lfyF9bYW_13immune_system5bcellNtB2_10BCellAgent3new
FN:92,_RNCNCNCNvMNtCs7W5lfyF9bYW_13immune_system5bcellNtB8_10BCellAgent17generate_antibody000CshG9qMLwq2HM_16kernel_companion
FN:115,_RNCNCNCNvMNtCs7W5lfyF9bYW_13immune_system5bcellNtB8_10BCellAgent17generate_antibody00s0_0CshG9qMLwq2HM_16kernel_companion
FN:68,_RNCNvMNtCs7W5lfyF9bYW_13immune_system5bcellNtB4_10BCellAgent12learn_threat0CshG9qMLwq2HM_16kernel_companion
FN:90,_RNCNvMNtCs7W5lfyF9bYW_13immune_system5bcellNtB4_10BCellAgent17generate_antibody0CshG9qMLwq2HM_16kernel_companion
FN:132,_RNCNvMNtCs7W5lfyF9bYW_13immune_system5bcellNtB4_10BCellAgent19take_new_antibodies0CshG9qMLwq2HM_16kernel_companion
FN:92,_RNCNCNCNvMNtCs7W5lfyF9bYW_13immune_system5bcellNtB8_10BCellAgent17generate_antibody000CscMnwIHTVX4e_8pipeline
FN:115,_RNCNCNCNvMNtCs7W5lfyF9bYW_13immune_system5bcellNtB8_10BCellAgent17generate_antibody00s0_0CscMnwIHTVX4e_8pipeline
FN:68,_RNCNvMNtCs7W5lfyF9bYW_13immune_system5bcellNtB4_10BCellAgent12learn_threat0CscMnwIHTVX4e_8pipeline
FN:126,_RNCNvMNtCs7W5lfyF9bYW_13immune_system5bcellNtB4_10BCellAgent14get_antibodies0CscMnwIHTVX4e_8pipeline
FN:90,_RNCNvMNtCs7W5lfyF9bYW_13immune_system5bcellNtB4_10BCellAgent17generate_antibody0CscMnwIHTVX4e_8pipeline
FNDA:1,_RNCNvNtNtCs4616fWembGs_13immune_system5bcell5testss_19patterns_are_stored0B7_
FNDA:1,_RNCNvNtNtCs4616fWembGs_13immune_system5bcell5testss_27learn_and_generate_antibody0B7_
FNDA:1,_RNCNvNtNtCs4616fWembGs_13immune_system5bcell5testss_27no_antibody_below_threshold0B7_
FNDA:6,_RNCNCNCNvMNtCs4616fWembGs_13immune_system5bcellNtB8_10BCellAgent17generate_antibody000Ba_
FNDA:0,_RNCNCNCNvMNtCs4616fWembGs_13immune_system5bcellNtB8_10BCellAgent17generate_antibody00s0_0Ba_
FNDA:1,_RNCNvMNtCs4616fWembGs_13immune_system5bcellNtB4_10BCellAgent12get_patterns0B6_
FNDA:7,_RNCNvMNtCs4616fWembGs_13immune_system5bcellNtB4_10BCellAgent12learn_threat0B6_
FNDA:2,_RNCNvMNtCs4616fWembGs_13immune_system5bcellNtB4_10BCellAgent17generate_antibody0B6_
FNDA:0,_RNCNvMNtCs4616fWembGs_13immune_system5bcellNtB4_10BCellAgent14get_antibodies0B6_
FNDA:0,_RNCNvMNtCs4616fWembGs_13immune_system5bcellNtB4_10BCellAgent19take_new_antibodies0B6_
FNDA:0,_RNvMNtCs4616fWembGs_13immune_system5bcellNtB2_10BCellAgent14get_antibodies
FNDA:0,_RNvMNtCs4616fWembGs_13immune_system5bcellNtB2_10BCellAgent19take_new_antibodies
FNDA:1,_RNvMNtCs4616fWembGs_13immune_system5bcellNtB2_10BCellAgent12get_patterns
FNDA:7,_RNvMNtCs4616fWembGs_13immune_system5bcellNtB2_10BCellAgent12learn_threat
FNDA:2,_RNvMNtCs4616fWembGs_13immune_system5bcellNtB2_10BCellAgent17generate_antibody
FNDA:3,_RNvMNtCs4616fWembGs_13immune_system5bcellNtB2_10BCellAgent3new
FNDA:3,_RNvNtNtCs4616fWembGs_13immune_system5bcell5tests10make_bcell
FNDA:1,_RNvNtNtCs4616fWembGs_13immune_system5bcell5testss_19patterns_are_stored
FNDA:1,_RNvNtNtCs4616fWembGs_13immune_system5bcell5testss_27learn_and_generate_antibody
FNDA:1,_RNvNtNtCs4616fWembGs_13immune_system5bcell5testss_27no_antibody_below_threshold
FNDA:0,_RNCNCNCNvMNtCs7W5lfyF9bYW_13immune_system5bcellNtB8_10BCellAgent17generate_antibody000CseLUTM0PnGP2_16kernel_companion
FNDA:0,_RNCNCNCNvMNtCs7W5lfyF9bYW_13immune_system5bcellNtB8_10BCellAgent17generate_antibody00s0_0CseLUTM0PnGP2_16kernel_companion
FNDA:0,_RNCNvMNtCs7W5lfyF9bYW_13immune_system5bcellNtB4_10BCellAgent12learn_threat0CseLUTM0PnGP2_16kernel_companion
FNDA:0,_RNCNvMNtCs7W5lfyF9bYW_13immune_system5bcellNtB4_10BCellAgent17generate_antibody0CseLUTM0PnGP2_16kernel_companion
FNDA:0,_RNCNvMNtCs7W5lfyF9bYW_13immune_system5bcellNtB4_10BCellAgent19take_new_antibodies0CseLUTM0PnGP2_16kernel_companion
FNDA:0,_RNvMNtCs7W5lfyF9bYW_13immune_system5bcellNtB2_10BCellAgent12get_patterns
FNDA:5,_RNvMNtCs7W5lfyF9bYW_13immune_system5bcellNtB2_10BCellAgent12learn_threat
FNDA:1,_RNvMNtCs7W5lfyF9bYW_13immune_system5bcellNtB2_10BCellAgent14get_antibodies
FNDA:1,_RNvMNtCs7W5lfyF9bYW_13immune_system5bcellNtB2_10BCellAgent17generate_antibody
FNDA:0,_RNvMNtCs7W5lfyF9bYW_13immune_system5bcellNtB2_10BCellAgent19take_new_antibodies
FNDA:4,_RNvMNtCs7W5lfyF9bYW_13immune_system5bcellNtB2_10BCellAgent3new
FNDA:0,_RNCNCNCNvMNtCs7W5lfyF9bYW_13immune_system5bcellNtB8_10BCellAgent17generate_antibody000CshG9qMLwq2HM_16kernel_companion
FNDA:0,_RNCNCNCNvMNtCs7W5lfyF9bYW_13immune_system5bcellNtB8_10BCellAgent17generate_antibody00s0_0CshG9qMLwq2HM_16kernel_companion
FNDA:0,_RNCNvMNtCs7W5lfyF9bYW_13immune_system5bcellNtB4_10BCellAgent12learn_threat0CshG9qMLwq2HM_16kernel_companion
FNDA:0,_RNCNvMNtCs7W5lfyF9bYW_13immune_system5bcellNtB4_10BCellAgent17generate_antibody0CshG9qMLwq2HM_16kernel_companion
FNDA:0,_RNCNvMNtCs7W5lfyF9bYW_13immune_system5bcellNtB4_10BCellAgent19take_new_antibodies0CshG9qMLwq2HM_16kernel_companion
FNDA:5,_RNCNCNCNvMNtCs7W5lfyF9bYW_13immune_system5bcellNtB8_10BCellAgent17generate_antibody000CscMnwIHTVX4e_8pipeline
FNDA:0,_RNCNCNCNvMNtCs7W5lfyF9bYW_13immune_system5bcellNtB8_10BCellAgent17generate_antibody00s0_0CscMnwIHTVX4e_8pipeline
FNDA:5,_RNCNvMNtCs7W5lfyF9bYW_13immune_system5bcellNtB4_10BCellAgent12learn_threat0CscMnwIHTVX4e_8pipeline
FNDA:1,_RNCNvMNtCs7W5lfyF9bYW_13immune_system5bcellNtB4_10BCellAgent14get_antibodies0CscMnwIHTVX4e_8pipeline
FNDA:1,_RNCNvMNtCs7W5lfyF9bYW_13immune_system5bcellNtB4_10BCellAgent17generate_antibody0CscMnwIHTVX4e_8pipeline
FNF:20
FNH:17
DA:58,7
DA:59,7
DA:60,7
DA:61,7
DA:62,7
DA:63,7
DA:64,7
DA:68,12
DA:86,12
DA:90,3
DA:92,11
DA:115,0
DA:123,3
DA:126,1
DA:127,1
DA:128,1
DA:132,0
DA:133,0
DA:134,0
DA:135,0
DA:136,0
DA:137,0
DA:140,1
DA:141,1
DA:142,1
DA:149,3
DA:150,3
DA:151,3
DA:154,1
DA:155,1
DA:156,1
DA:157,5
DA:159,1
DA:160,1
DA:161,1
DA:162,1
DA:165,1
DA:166,1
DA:167,1
DA:168,1
DA:169,1
DA:170,1
DA:173,1
DA:174,1
DA:175,1
DA:176,1
DA:177,1
DA:178,1
DA:179,1
BRF:0
BRH:0
LF:60
LH:52
end_of_record
SF:/home/lokis/Documents/AI-Native-Kernel/crates/immune-system/src/cytokine.rs
FN:160,_RNCNvNtNtCs4616fWembGs_13immune_system8cytokine5testss_13history_limit0B7_
FN:151,_RNCNvNtNtCs4616fWembGs_13immune_system8cytokine5testss_16emergency_signal0B7_
FN:141,_RNCNvNtNtCs4616fWembGs_13immune_system8cytokine5testss_20broadcast_and_record0B7_
FN:40,_RNvMNtCs4616fWembGs_13immune_system8cytokineNtB2_13CytokineEvent3new
FN:62,_RNvMs_NtCs4616fWembGs_13immune_system8cytokineNtB4_14CytokineSignal3new
FN:131,_RNvMs_NtCs4616fWembGs_13immune_system8cytokineNtB4_14CytokineSignal7history
FN:72,_RNvMs_NtCs4616fWembGs_13immune_system8cytokineNtB4_14CytokineSignal9broadcast
FN:124,_RNvMs_NtCs4616fWembGs_13immune_system8cytokineNtB4_14CytokineSignal9emergency
FN:160,_RNvNtNtCs4616fWembGs_13immune_system8cytokine5testss_13history_limit
FN:151,_RNvNtNtCs4616fWembGs_13immune_system8cytokine5testss_16emergency_signal
FN:141,_RNvNtNtCs4616fWembGs_13immune_system8cytokine5testss_20broadcast_and_record
FN:72,_RNCNvMs_NtCs4616fWembGs_13immune_system8cytokineNtB6_14CytokineSignal9broadcast0B8_
FN:124,_RNCNvMs_NtCs4616fWembGs_13immune_system8cytokineNtB6_14CytokineSignal9emergency0B8_
FNDA:1,_RNCNvNtNtCs4616fWembGs_13immune_system8cytokine5testss_13history_limit0B7_
FNDA:1,_RNCNvNtNtCs4616fWembGs_13immune_system8cytokine5testss_16emergency_signal0B7_
FNDA:1,_RNCNvNtNtCs4616fWembGs_13immune_system8cytokine5testss_20broadcast_and_record0B7_
FNDA:7,_RNvMNtCs4616fWembGs_13immune_system8cytokineNtB2_13CytokineEvent3new
FNDA:3,_RNvMs_NtCs4616fWembGs_13immune_system8cytokineNtB4_14CytokineSignal3new
FNDA:6,_RNvMs_NtCs4616fWembGs_13immune_system8cytokineNtB4_14CytokineSignal7history
FNDA:7,_RNvMs_NtCs4616fWembGs_13immune_system8cytokineNtB4_14CytokineSignal9broadcast
FNDA:1,_RNvMs_NtCs4616fWembGs_13immune_system8cytokineNtB4_14CytokineSignal9emergency
FNDA:1,_RNvNtNtCs4616fWembGs_13immune_system8cytokine5testss_13history_limit
FNDA:1,_RNvNtNtCs4616fWembGs_13immune_system8cytokine5testss_16emergency_signal
FNDA:1,_RNvNtNtCs4616fWembGs_13immune_system8cytokine5testss_20broadcast_and_record
FNDA:7,_RNCNvMs_NtCs4616fWembGs_13immune_system8cytokineNtB6_14CytokineSignal9broadcast0B8_
FNDA:1,_RNCNvMs_NtCs4616fWembGs_13immune_system8cytokineNtB6_14CytokineSignal9emergency0B8_
FNF:13
FNH:13
DA:40,7
DA:41,7
DA:42,7
DA:43,7
DA:44,7
DA:45,7
DA:46,7
DA:47,7
DA:48,7
DA:62,3
DA:63,3
DA:64,3
DA:65,3
DA:66,3
DA:67,3
DA:68,3
DA:72,7
DA:73,7
DA:95,7
DA:120,7
DA:124,1
DA:127,1
DA:131,6
DA:132,6
DA:133,6
DA:141,1
DA:142,1
DA:143,1
DA:144,1
DA:145,1
DA:146,1
DA:147,1
DA:148,1
DA:151,1
DA:152,1
DA:153,1
DA:154,1
DA:155,1
DA:156,1
DA:157,1
DA:160,1
DA:161,1
DA:162,1
DA:163,5
DA:164,5
DA:165,5
DA:167,1
DA:168,1
DA:169,1
BRF:0
BRH:0
LF:57
LH:57
end_of_record
SF:/home/lokis/Documents/AI-Native-Kernel/crates/immune-system/src/macrophage.rs
FN:57,_RNvMNtCs4616fWembGs_13immune_system10macrophageNtB2_15MacrophageAgent13sweep_intents
FN:29,_RNvMNtCs4616fWembGs_13immune_system10macrophageNtB2_15MacrophageAgent3new
FN:98,_RNvMNtCs4616fWembGs_13immune_system10macrophageNtB2_15MacrophageAgent5stats
FN:47,_RNvMNtCs4616fWembGs_13immune_system10macrophageNtB2_15MacrophageAgent8is_stale
FN:161,_RNCNvNtNtCs4616fWembGs_13immune_system10macrophage5testss_40sweep_returns_zero_when_no_stale_intents0B7_
FN:70,_RNCNCNCNvMNtCs4616fWembGs_13immune_system10macrophageNtB8_15MacrophageAgent13sweep_intents00s_0Ba_
FN:57,_RNCNvMNtCs4616fWembGs_13immune_system10macrophageNtB4_15MacrophageAgent13sweep_intents0B6_
FN:51,_RNCNvMNtCs4616fWembGs_13immune_system10macrophageNtB4_15MacrophageAgent8is_stale0B6_
FN:84,_RNCNvMNtCs4616fWembGs_13immune_system10macrophageNtB4_15MacrophageAgent13sweep_context0B6_
FN:84,_RNvMNtCs4616fWembGs_13immune_system10macrophageNtB2_15MacrophageAgent13sweep_context
FN:120,_RNvNtNtCs4616fWembGs_13immune_system10macrophage5tests15make_macrophage
FN:130,_RNvNtNtCs4616fWembGs_13immune_system10macrophage5testss_21stale_intent_detected
FN:143,_RNvNtNtCs4616fWembGs_13immune_system10macrophage5testss_22fresh_intent_not_stale
FN:155,_RNvNtNtCs4616fWembGs_13immune_system10macrophage5testss_32collected_counter_starts_at_zero
FN:161,_RNvNtNtCs4616fWembGs_13immune_system10macrophage5testss_40sweep_returns_zero_when_no_stale_intents
FN:84,_RNCNvMNtCs7W5lfyF9bYW_13immune_system10macrophageNtB4_15MacrophageAgent13sweep_context0CseLUTM0PnGP2_16kernel_companion
FN:84,_RNvMNtCs7W5lfyF9bYW_13immune_system10macrophageNtB2_15MacrophageAgent13sweep_context
FN:57,_RNvMNtCs7W5lfyF9bYW_13immune_system10macrophageNtB2_15MacrophageAgent13sweep_intents
FN:29,_RNvMNtCs7W5lfyF9bYW_13immune_system10macrophageNtB2_15MacrophageAgent3new
FN:98,_RNvMNtCs7W5lfyF9bYW_13immune_system10macrophageNtB2_15MacrophageAgent5stats
FN:47,_RNvMNtCs7W5lfyF9bYW_13immune_system10macrophageNtB2_15MacrophageAgent8is_stale
FN:51,_RNCNvMNtCs7W5lfyF9bYW_13immune_system10macrophageNtB4_15MacrophageAgent8is_stale0B6_
FN:84,_RNCNvMNtCs7W5lfyF9bYW_13immune_system10macrophageNtB4_15MacrophageAgent13sweep_context0CshG9qMLwq2HM_16kernel_companion
FN:84,_RNCNvMNtCs7W5lfyF9bYW_13immune_system10macrophageNtB4_15MacrophageAgent13sweep_context0CscMnwIHTVX4e_8pipeline
FNDA:1,_RNvMNtCs4616fWembGs_13immune_system10macrophageNtB2_15MacrophageAgent13sweep_intents
FNDA:2,_RNvMNtCs4616fWembGs_13immune_system10macrophageNtB2_15MacrophageAgent3new
FNDA:1,_RNvMNtCs4616fWembGs_13immune_system10macrophageNtB2_15MacrophageAgent5stats
FNDA:2,_RNvMNtCs4616fWembGs_13immune_system10macrophageNtB2_15MacrophageAgent8is_stale
FNDA:1,_RNCNvNtNtCs4616fWembGs_13immune_system10macrophage5testss_40sweep_returns_zero_when_no_stale_intents0B7_
FNDA:0,_RNCNCNCNvMNtCs4616fWembGs_13immune_system10macrophageNtB8_15MacrophageAgent13sweep_intents00s_0Ba_
FNDA:1,_RNCNvMNtCs4616fWembGs_13immune_system10macrophageNtB4_15MacrophageAgent13sweep_intents0B6_
FNDA:2,_RNCNvMNtCs4616fWembGs_13immune_system10macrophageNtB4_15MacrophageAgent8is_stale0B6_
FNDA:0,_RNCNvMNtCs4616fWembGs_13immune_system10macrophageNtB4_15MacrophageAgent13sweep_context0B6_
FNDA:0,_RNvMNtCs4616fWembGs_13immune_system10macrophageNtB2_15MacrophageAgent13sweep_context
FNDA:2,_RNvNtNtCs4616fWembGs_13immune_system10macrophage5tests15make_macrophage
FNDA:1,_RNvNtNtCs4616fWembGs_13immune_system10macrophage5testss_21stale_intent_detected
FNDA:1,_RNvNtNtCs4616fWembGs_13immune_system10macrophage5testss_22fresh_intent_not_stale
FNDA:1,_RNvNtNtCs4616fWembGs_13immune_system10macrophage5testss_32collected_counter_starts_at_zero
FNDA:1,_RNvNtNtCs4616fWembGs_13immune_system10macrophage5testss_40sweep_returns_zero_when_no_stale_intents
FNDA:0,_RNCNvMNtCs7W5lfyF9bYW_13immune_system10macrophageNtB4_15MacrophageAgent13sweep_context0CseLUTM0PnGP2_16kernel_companion
FNDA:1,_RNvMNtCs7W5lfyF9bYW_13immune_system10macrophageNtB2_15MacrophageAgent13sweep_context
FNDA:0,_RNvMNtCs7W5lfyF9bYW_13immune_system10macrophageNtB2_15MacrophageAgent13sweep_intents
FNDA:4,_RNvMNtCs7W5lfyF9bYW_13immune_system10macrophageNtB2_15MacrophageAgent3new
FNDA:1,_RNvMNtCs7W5lfyF9bYW_13immune_system10macrophageNtB2_15MacrophageAgent5stats
FNDA:2,_RNvMNtCs7W5lfyF9bYW_13immune_system10macrophageNtB2_15MacrophageAgent8is_stale
FNDA:2,_RNCNvMNtCs7W5lfyF9bYW_13immune_system10macrophageNtB4_15MacrophageAgent8is_stale0B6_
FNDA:0,_RNCNvMNtCs7W5lfyF9bYW_13immune_system10macrophageNtB4_15MacrophageAgent13sweep_context0CshG9qMLwq2HM_16kernel_companion
FNDA:1,_RNCNvMNtCs7W5lfyF9bYW_13immune_system10macrophageNtB4_15MacrophageAgent13sweep_context0CscMnwIHTVX4e_8pipeline
FNF:15
FNH:14
DA:29,6
DA:30,6
DA:31,6
DA:32,6
DA:33,6
DA:34,6
DA:35,6
DA:36,6
DA:37,6
DA:38,6
DA:39,6
DA:40,6
DA:41,6
DA:42,6
DA:43,6
DA:47,4
DA:48,4
DA:49,4
DA:50,4
DA:51,4
DA:52,4
DA:53,4
DA:57,1
DA:70,0
DA:80,1
DA:84,1
DA:94,1
DA:98,2
DA:99,2
DA:100,2
DA:101,2
DA:102,2
DA:103,2
DA:104,2
DA:105,2
DA:120,2
DA:121,2
DA:122,2
DA:123,2
DA:127,2
DA:130,1
DA:131,1
DA:133,1
DA:135,1
DA:138,1
DA:139,1
DA:140,1
DA:143,1
DA:144,1
DA:146,1
DA:148,1
DA:151,1
DA:152,1
DA:155,1
DA:156,1
DA:157,1
DA:158,1
DA:161,1
DA:162,1
DA:163,1
DA:164,1
DA:165,1
BRF:0
BRH:0
LF:67
LH:66
end_of_record
SF:/home/lokis/Documents/AI-Native-Kernel/crates/immune-system/src/tcell.rs
FN:229,_RNCNvMs_NtCs7W5lfyF9bYW_13immune_system5tcellNtB6_10TCellAgent20get_quarantined_pids0CseVkF4WK7ytE_16kernel_companion
FN:210,_RNvMs_NtCs7W5lfyF9bYW_13immune_system5tcellNtB4_10TCellAgent10quarantine
FN:218,_RNvMs_NtCs7W5lfyF9bYW_13immune_system5tcellNtB4_10TCellAgent14is_quarantined
FN:115,_RNvMs_NtCs7W5lfyF9bYW_13immune_system5tcellNtB4_10TCellAgent15observe_syscall
FN:103,_RNvMs_NtCs7W5lfyF9bYW_13immune_system5tcellNtB4_10TCellAgent17update_thresholds
FN:88,_RNvMs_NtCs7W5lfyF9bYW_13immune_system5tcellNtB4_10TCellAgent19with_kill_threshold
FN:229,_RNvMs_NtCs7W5lfyF9bYW_13immune_system5tcellNtB4_10TCellAgent20get_quarantined_pids
FN:234,_RNvMs_NtCs7W5lfyF9bYW_13immune_system5tcellNtB4_10TCellAgent26release_expired_quarantine
FN:83,_RNvMs_NtCs7W5lfyF9bYW_13immune_system5tcellNtB4_10TCellAgent3new
FN:223,_RNvMs_NtCs7W5lfyF9bYW_13immune_system5tcellNtB4_10TCellAgent7release
FN:255,_RNvMs_NtCs7W5lfyF9bYW_13immune_system5tcellNtB4_10TCellAgent9get_stats
FN:261,_RNvNtCs7W5lfyF9bYW_13immune_system5tcell23has_suspicious_sequence
FN:55,_RNvXNtCs7W5lfyF9bYW_13immune_system5tcellNtB2_12ProcessStatsNtNtCs13ARFDxRLcQ_4core7default7Default7default
FN:306,_RNvNtNtCs4616fWembGs_13immune_system5tcell5tests10make_tcell
FN:335,_RNvNtNtCs4616fWembGs_13immune_system5tcell5testss_17stats_are_tracked
FN:325,_RNvNtNtCs4616fWembGs_13immune_system5tcell5testss_22quarantine_and_release
FN:376,_RNvNtNtCs4616fWembGs_13immune_system5tcell5testss_22test_quarantine_expiry
FN:345,_RNvNtNtCs4616fWembGs_13immune_system5tcell5testss_24dynamic_threshold_update
FN:311,_RNvNtNtCs4616fWembGs_13immune_system5tcell5testss_25safe_syscall_returns_safe
FN:318,_RNvNtNtCs4616fWembGs_13immune_system5tcell5testss_27denied_syscall_returns_warn
FN:357,_RNvNtNtCs4616fWembGs_13immune_system5tcell5testss_35test_suspicious_sequence_escalation
FN:366,_RNvNtNtCs4616fWembGs_13immune_system5tcell5testss_38test_suspicious_sequence_reverse_shell
FN:210,_RNvMs_NtCs4616fWembGs_13immune_system5tcellNtB4_10TCellAgent10quarantine
FN:218,_RNvMs_NtCs4616fWembGs_13immune_system5tcellNtB4_10TCellAgent14is_quarantined
FN:115,_RNvMs_NtCs4616fWembGs_13immune_system5tcellNtB4_10TCellAgent15observe_syscall
FN:103,_RNvMs_NtCs4616fWembGs_13immune_system5tcellNtB4_10TCellAgent17update_thresholds
FN:88,_RNvMs_NtCs4616fWembGs_13immune_system5tcellNtB4_10TCellAgent19with_kill_threshold
FN:234,_RNvMs_NtCs4616fWembGs_13immune_system5tcellNtB4_10TCellAgent26release_expired_quarantine
FN:83,_RNvMs_NtCs4616fWembGs_13immune_system5tcellNtB4_10TCellAgent3new
FN:223,_RNvMs_NtCs4616fWembGs_13immune_system5tcellNtB4_10TCellAgent7release
FN:255,_RNvMs_NtCs4616fWembGs_13immune_system5tcellNtB4_10TCellAgent9get_stats
FN:261,_RNvNtCs4616fWembGs_13immune_system5tcell23has_suspicious_sequence
FN:55,_RNvXNtCs4616fWembGs_13immune_system5tcellNtB2_12ProcessStatsNtNtCs13ARFDxRLcQ_4core7default7Default7default
FN:229,_RNCNvMs_NtCs4616fWembGs_13immune_system5tcellNtB6_10TCellAgent20get_quarantined_pids0B8_
FN:229,_RNvMs_NtCs4616fWembGs_13immune_system5tcellNtB4_10TCellAgent20get_quarantined_pids
FN:239,_RNCNCNvMs_NtCs4616fWembGs_13immune_system5tcellNtB8_10TCellAgent26release_expired_quarantine00Ba_
FN:210,_RNCNvMs_NtCs4616fWembGs_13immune_system5tcellNtB6_10TCellAgent10quarantine0B8_
FN:218,_RNCNvMs_NtCs4616fWembGs_13immune_system5tcellNtB6_10TCellAgent14is_quarantined0B8_
FN:120,_RNCNvMs_NtCs4616fWembGs_13immune_system5tcellNtB6_10TCellAgent15observe_syscall0B8_
FN:234,_RNCNvMs_NtCs4616fWembGs_13immune_system5tcellNtB6_10TCellAgent26release_expired_quarantine0B8_
FN:223,_RNCNvMs_NtCs4616fWembGs_13immune_system5tcellNtB6_10TCellAgent7release0B8_
FN:255,_RNCNvMs_NtCs4616fWembGs_13immune_system5tcellNtB6_10TCellAgent9get_stats0B8_
FN:335,_RNCNvNtNtCs4616fWembGs_13immune_system5tcell5testss_17stats_are_tracked0B7_
FN:325,_RNCNvNtNtCs4616fWembGs_13immune_system5tcell5testss_22quarantine_and_release0B7_
FN:376,_RNCNvNtNtCs4616fWembGs_13immune_system5tcell5testss_22test_quarantine_expiry0B7_
FN:345,_RNCNvNtNtCs4616fWembGs_13immune_system5tcell5testss_24dynamic_threshold_update0B7_
FN:311,_RNCNvNtNtCs4616fWembGs_13immune_system5tcell5testss_25safe_syscall_returns_safe0B7_
FN:318,_RNCNvNtNtCs4616fWembGs_13immune_system5tcell5testss_27denied_syscall_returns_warn0B7_
FN:357,_RNCNvNtNtCs4616fWembGs_13immune_system5tcell5testss_35test_suspicious_sequence_escalation0B7_
FN:366,_RNCNvNtNtCs4616fWembGs_13immune_system5tcell5testss_38test_suspicious_sequence_reverse_shell0B7_
FN:239,_RNCNCNvMs_NtCs7W5lfyF9bYW_13immune_system5tcellNtB8_10TCellAgent26release_expired_quarantine00CseLUTM0PnGP2_16kernel_companion
FN:210,_RNCNvMs_NtCs7W5lfyF9bYW_13immune_system5tcellNtB6_10TCellAgent10quarantine0CseLUTM0PnGP2_16kernel_companion
FN:120,_RNCNvMs_NtCs7W5lfyF9bYW_13immune_system5tcellNtB6_10TCellAgent15observe_syscall0CseLUTM0PnGP2_16kernel_companion
FN:229,_RNCNvMs_NtCs7W5lfyF9bYW_13immune_system5tcellNtB6_10TCellAgent20get_quarantined_pids0CseLUTM0PnGP2_16kernel_companion
FN:234,_RNCNvMs_NtCs7W5lfyF9bYW_13immune_system5tcellNtB6_10TCellAgent26release_expired_quarantine0CseLUTM0PnGP2_16kernel_companion
FN:255,_RNCNvMs_NtCs7W5lfyF9bYW_13immune_system5tcellNtB6_10TCellAgent9get_stats0CseLUTM0PnGP2_16kernel_companion
FN:239,_RNCNCNvMs_NtCs7W5lfyF9bYW_13immune_system5tcellNtB8_10TCellAgent26release_expired_quarantine00CshG9qMLwq2HM_16kernel_companion
FN:210,_RNCNvMs_NtCs7W5lfyF9bYW_13immune_system5tcellNtB6_10TCellAgent10quarantine0CshG9qMLwq2HM_16kernel_companion
FN:120,_RNCNvMs_NtCs7W5lfyF9bYW_13immune_system5tcellNtB6_10TCellAgent15observe_syscall0CshG9qMLwq2HM_16kernel_companion
FN:234,_RNCNvMs_NtCs7W5lfyF9bYW_13immune_system5tcellNtB6_10TCellAgent26release_expired_quarantine0CshG9qMLwq2HM_16kernel_companion
FN:255,_RNCNvMs_NtCs7W5lfyF9bYW_13immune_system5tcellNtB6_10TCellAgent9get_stats0CshG9qMLwq2HM_16kernel_companion
FN:210,_RNCNvMs_NtCs7W5lfyF9bYW_13immune_system5tcellNtB6_10TCellAgent10quarantine0CscMnwIHTVX4e_8pipeline
FN:218,_RNCNvMs_NtCs7W5lfyF9bYW_13immune_system5tcellNtB6_10TCellAgent14is_quarantined0CscMnwIHTVX4e_8pipeline
FN:120,_RNCNvMs_NtCs7W5lfyF9bYW_13immune_system5tcellNtB6_10TCellAgent15observe_syscall0CscMnwIHTVX4e_8pipeline
FNDA:0,_RNCNvMs_NtCs7W5lfyF9bYW_13immune_system5tcellNtB6_10TCellAgent20get_quarantined_pids0CseVkF4WK7ytE_16kernel_companion
FNDA:1,_RNvMs_NtCs7W5lfyF9bYW_13immune_system5tcellNtB4_10TCellAgent10quarantine
FNDA:1,_RNvMs_NtCs7W5lfyF9bYW_13immune_system5tcellNtB4_10TCellAgent14is_quarantined
FNDA:10,_RNvMs_NtCs7W5lfyF9bYW_13immune_system5tcellNtB4_10TCellAgent15observe_syscall
FNDA:0,_RNvMs_NtCs7W5lfyF9bYW_13immune_system5tcellNtB4_10TCellAgent17update_thresholds
FNDA:4,_RNvMs_NtCs7W5lfyF9bYW_13immune_system5tcellNtB4_10TCellAgent19with_kill_threshold
FNDA:0,_RNvMs_NtCs7W5lfyF9bYW_13immune_system5tcellNtB4_10TCellAgent20get_quarantined_pids
FNDA:0,_RNvMs_NtCs7W5lfyF9bYW_13immune_system5tcellNtB4_10TCellAgent26release_expired_quarantine
FNDA:1,_RNvMs_NtCs7W5lfyF9bYW_13immune_system5tcellNtB4_10TCellAgent3new
FNDA:0,_RNvMs_NtCs7W5lfyF9bYW_13immune_system5tcellNtB4_10TCellAgent7release
FNDA:0,_RNvMs_NtCs7W5lfyF9bYW_13immune_system5tcellNtB4_10TCellAgent9get_stats
FNDA:10,_RNvNtCs7W5lfyF9bYW_13immune_system5tcell23has_suspicious_sequence
FNDA:7,_RNvXNtCs7W5lfyF9bYW_13immune_system5tcellNtB2_12ProcessStatsNtNtCs13ARFDxRLcQ_4core7default7Default7default
FNDA:8,_RNvNtNtCs4616fWembGs_13immune_system5tcell5tests10make_tcell
FNDA:1,_RNvNtNtCs4616fWembGs_13immune_system5tcell5testss_17stats_are_tracked
FNDA:1,_RNvNtNtCs4616fWembGs_13immune_system5tcell5testss_22quarantine_and_release
FNDA:1,_RNvNtNtCs4616fWembGs_13immune_system5tcell5testss_22test_quarantine_expiry
FNDA:1,_RNvNtNtCs4616fWembGs_13immune_system5tcell5testss_24dynamic_threshold_update
FNDA:1,_RNvNtNtCs4616fWembGs_13immune_system5tcell5testss_25safe_syscall_returns_safe
FNDA:1,_RNvNtNtCs4616fWembGs_13immune_system5tcell5testss_27denied_syscall_returns_warn
FNDA:1,_RNvNtNtCs4616fWembGs_13immune_system5tcell5testss_35test_suspicious_sequence_escalation
FNDA:1,_RNvNtNtCs4616fWembGs_13immune_system5tcell5testss_38test_suspicious_sequence_reverse_shell
FNDA:2,_RNvMs_NtCs4616fWembGs_13immune_system5tcellNtB4_10TCellAgent10quarantine
FNDA:5,_RNvMs_NtCs4616fWembGs_13immune_system5tcellNtB4_10TCellAgent14is_quarantined
FNDA:30,_RNvMs_NtCs4616fWembGs_13immune_system5tcellNtB4_10TCellAgent15observe_syscall
FNDA:1,_RNvMs_NtCs4616fWembGs_13immune_system5tcellNtB4_10TCellAgent17update_thresholds
FNDA:8,_RNvMs_NtCs4616fWembGs_13immune_system5tcellNtB4_10TCellAgent19with_kill_threshold
FNDA:1,_RNvMs_NtCs4616fWembGs_13immune_system5tcellNtB4_10TCellAgent26release_expired_quarantine
FNDA:8,_RNvMs_NtCs4616fWembGs_13immune_system5tcellNtB4_10TCellAgent3new
FNDA:1,_RNvMs_NtCs4616fWembGs_13immune_system5tcellNtB4_10TCellAgent7release
FNDA:1,_RNvMs_NtCs4616fWembGs_13immune_system5tcellNtB4_10TCellAgent9get_stats
FNDA:30,_RNvNtCs4616fWembGs_13immune_system5tcell23has_suspicious_sequence
FNDA:6,_RNvXNtCs4616fWembGs_13immune_system5tcellNtB2_12ProcessStatsNtNtCs13ARFDxRLcQ_4core7default7Default7default
FNDA:0,_RNCNvMs_NtCs4616fWembGs_13immune_system5tcellNtB6_10TCellAgent20get_quarantined_pids0B8_
FNDA:0,_RNvMs_NtCs4616fWembGs_13immune_system5tcellNtB4_10TCellAgent20get_quarantined_pids
FNDA:1,_RNCNCNvMs_NtCs4616fWembGs_13immune_system5tcellNtB8_10TCellAgent26release_expired_quarantine00Ba_
FNDA:2,_RNCNvMs_NtCs4616fWembGs_13immune_system5tcellNtB6_10TCellAgent10quarantine0B8_
FNDA:5,_RNCNvMs_NtCs4616fWembGs_13immune_system5tcellNtB6_10TCellAgent14is_quarantined0B8_
FNDA:30,_RNCNvMs_NtCs4616fWembGs_13immune_system5tcellNtB6_10TCellAgent15observe_syscall0B8_
FNDA:1,_RNCNvMs_NtCs4616fWembGs_13immune_system5tcellNtB6_10TCellAgent26release_expired_quarantine0B8_
FNDA:1,_RNCNvMs_NtCs4616fWembGs_13immune_system5tcellNtB6_10TCellAgent7release0B8_
FNDA:1,_RNCNvMs_NtCs4616fWembGs_13immune_system5tcellNtB6_10TCellAgent9get_stats0B8_
FNDA:1,_RNCNvNtNtCs4616fWembGs_13immune_system5tcell5testss_17stats_are_tracked0B7_
FNDA:1,_RNCNvNtNtCs4616fWembGs_13immune_system5tcell5testss_22quarantine_and_release0B7_
FNDA:1,_RNCNvNtNtCs4616fWembGs_13immune_system5tcell5testss_22test_quarantine_expiry0B7_
FNDA:1,_RNCNvNtNtCs4616fWembGs_13immune_system5tcell5testss_24dynamic_threshold_update0B7_
FNDA:1,_RNCNvNtNtCs4616fWembGs_13immune_system5tcell5testss_25safe_syscall_returns_safe0B7_
FNDA:1,_RNCNvNtNtCs4616fWembGs_13immune_system5tcell5testss_27denied_syscall_returns_warn0B7_
FNDA:1,_RNCNvNtNtCs4616fWembGs_13immune_system5tcell5testss_35test_suspicious_sequence_escalation0B7_
FNDA:1,_RNCNvNtNtCs4616fWembGs_13immune_system5tcell5testss_38test_suspicious_sequence_reverse_shell0B7_
FNDA:0,_RNCNCNvMs_NtCs7W5lfyF9bYW_13immune_system5tcellNtB8_10TCellAgent26release_expired_quarantine00CseLUTM0PnGP2_16kernel_companion
FNDA:0,_RNCNvMs_NtCs7W5lfyF9bYW_13immune_system5tcellNtB6_10TCellAgent10quarantine0CseLUTM0PnGP2_16kernel_companion
FNDA:8,_RNCNvMs_NtCs7W5lfyF9bYW_13immune_system5tcellNtB6_10TCellAgent15observe_syscall0CseLUTM0PnGP2_16kernel_companion
FNDA:0,_RNCNvMs_NtCs7W5lfyF9bYW_13immune_system5tcellNtB6_10TCellAgent20get_quarantined_pids0CseLUTM0PnGP2_16kernel_companion
FNDA:0,_RNCNvMs_NtCs7W5lfyF9bYW_13immune_system5tcellNtB6_10TCellAgent26release_expired_quarantine0CseLUTM0PnGP2_16kernel_companion
FNDA:0,_RNCNvMs_NtCs7W5lfyF9bYW_13immune_system5tcellNtB6_10TCellAgent9get_stats0CseLUTM0PnGP2_16kernel_companion
FNDA:0,_RNCNCNvMs_NtCs7W5lfyF9bYW_13immune_system5tcellNtB8_10TCellAgent26release_expired_quarantine00CshG9qMLwq2HM_16kernel_companion
FNDA:0,_RNCNvMs_NtCs7W5lfyF9bYW_13immune_system5tcellNtB6_10TCellAgent10quarantine0CshG9qMLwq2HM_16kernel_companion
FNDA:0,_RNCNvMs_NtCs7W5lfyF9bYW_13immune_system5tcellNtB6_10TCellAgent15observe_syscall0CshG9qMLwq2HM_16kernel_companion
FNDA:0,_RNCNvMs_NtCs7W5lfyF9bYW_13immune_system5tcellNtB6_10TCellAgent26release_expired_quarantine0CshG9qMLwq2HM_16kernel_companion
FNDA:0,_RNCNvMs_NtCs7W5lfyF9bYW_13immune_system5tcellNtB6_10TCellAgent9get_stats0CshG9qMLwq2HM_16kernel_companion
FNDA:1,_RNCNvMs_NtCs7W5lfyF9bYW_13immune_system5tcellNtB6_10TCellAgent10quarantine0CscMnwIHTVX4e_8pipeline
FNDA:1,_RNCNvMs_NtCs7W5lfyF9bYW_13immune_system5tcellNtB6_10TCellAgent14is_quarantined0CscMnwIHTVX4e_8pipeline
FNDA:2,_RNCNvMs_NtCs7W5lfyF9bYW_13immune_system5tcellNtB6_10TCellAgent15observe_syscall0CscMnwIHTVX4e_8pipeline
FNF:37
FNH:35
DA:55,13
DA:56,13
DA:57,13
DA:58,13
DA:59,13
DA:60,13
DA:61,13
DA:62,13
DA:63,13
DA:64,13
DA:83,9
DA:84,9
DA:85,9
DA:88,12
DA:89,12
DA:90,12
DA:91,12
DA:92,12
DA:93,12
DA:94,12
DA:95,12
DA:96,12
DA:97,12
DA:98,12
DA:99,12
DA:100,12
DA:103,1
DA:104,1
DA:105,1
DA:106,1
DA:107,1
DA:111,1
DA:115,40
DA:116,40
DA:117,40
DA:118,40
DA:119,40
DA:120,40
DA:207,40
DA:210,3
DA:211,3
DA:212,3
DA:213,3
DA:214,3
DA:218,6
DA:220,6
DA:223,1
DA:224,1
DA:225,1
DA:226,1
DA:229,0
DA:230,0
DA:231,0
DA:234,1
DA:235,1
DA:236,1
DA:237,1
DA:239,1
DA:240,1
DA:241,1
DA:242,1
DA:244,0
DA:246,1
DA:248,1
DA:249,1
DA:251,1
DA:252,1
DA:255,1
DA:256,1
DA:257,1
DA:261,40
DA:262,40
DA:263,13
DA:264,27
DA:267,27
DA:268,109
DA:269,109
DA:270,2
DA:271,107
DA:272,2
DA:273,105
DA:277,25
DA:278,105
DA:279,105
DA:280,0
DA:281,105
DA:282,0
DA:283,105
DA:287,25
DA:288,25
DA:289,105
DA:290,105
DA:291,2
DA:292,103
DA:293,2
DA:294,101
DA:295,1
DA:296,100
DA:299,24
DA:300,40
DA:306,8
DA:307,8
DA:308,8
DA:311,1
DA:312,1
DA:313,1
DA:314,1
DA:315,1
DA:318,1
DA:319,1
DA:320,1
DA:321,1
DA:322,1
DA:325,1
DA:326,1
DA:327,1
DA:328,1
DA:329,1
DA:330,1
DA:331,1
DA:332,1
DA:335,1
DA:336,1
DA:337,1
DA:338,1
DA:339,1
DA:340,1
DA:341,1
DA:342,1
DA:345,1
DA:346,1
DA:347,1
DA:349,1
DA:350,20
DA:352,1
DA:353,1
DA:354,1
DA:357,1
DA:358,1
DA:359,1
DA:360,1
DA:362,1
DA:363,1
DA:366,1
DA:367,1
DA:368,1
DA:369,1
DA:370,1
DA:372,1
DA:373,1
DA:376,1
DA:377,1
DA:378,1
DA:379,1
DA:382,1
DA:383,1
DA:384,1
DA:385,1
BRF:0
BRH:0
LF:182
LH:175
end_of_record
SF:/home/lokis/Documents/AI-Native-Kernel/crates/intent-bus/src/lib.rs
FN:36,_RINvMCs2uX8lY3keny_10intent_busNtB3_6Intent3newNtNtCs72dgD6uzVEf_5alloc6string6StringRBJ_ReECs3nuw0ZpIt8W_7ank_cli
FN:149,_RNCNvMs0_Cs2uX8lY3keny_10intent_busNtB7_15FilterCondition7matches0B7_
FN:134,_RNCNvMs_Cs2uX8lY3keny_10intent_busNtB6_12IntentFilter6passes0B6_
FN:141,_RNvMs0_Cs2uX8lY3keny_10intent_busNtB5_15FilterCondition7matches
FN:183,_RNvMs1_Cs2uX8lY3keny_10intent_busNtB5_9IntentBus10add_filter
FN:189,_RNvMs1_Cs2uX8lY3keny_10intent_busNtB5_9IntentBus13remove_filter
FN:195,_RNvMs1_Cs2uX8lY3keny_10intent_busNtB5_9IntentBus14passes_filters
FN:158,_RNvMs1_Cs2uX8lY3keny_10intent_busNtB5_9IntentBus3new
FN:175,_RNvMs1_Cs2uX8lY3keny_10intent_busNtB5_9IntentBus7publish
FN:167,_RNvMs1_Cs2uX8lY3keny_10intent_busNtB5_9IntentBus9subscribe
FN:228,_RNvMs2_Cs2uX8lY3keny_10intent_busNtB5_16IntentSubscriber7receive
FN:131,_RNvMs_Cs2uX8lY3keny_10intent_busNtB4_12IntentFilter6passes
FN:36,_RINvMCs2uX8lY3keny_10intent_busNtB3_6Intent3newReBJ_BJ_ECshXVcbH1gJqo_7ank_tui
FN:36,_RINvMCs2uX8lY3keny_10intent_busNtB3_6Intent3newReBJ_BJ_ECs4ATkuxJMDK0_15agent_scheduler
FN:175,_RNCNvMs1_Cs2uX8lY3keny_10intent_busNtB7_9IntentBus7publish0Cs4ATkuxJMDK0_15agent_scheduler
FN:228,_RNCNvMs2_Cs2uX8lY3keny_10intent_busNtB7_16IntentSubscriber7receive0Cs4ATkuxJMDK0_15agent_scheduler
FN:36,_RINvMCs2uX8lY3keny_10intent_busNtB3_6Intent3newNtNtCs72dgD6uzVEf_5alloc6string6StringBJ_ReECs56hN5CfNqOK_5chaos
FN:175,_RNCNvMs1_Cs2uX8lY3keny_10intent_busNtB7_9IntentBus7publish0Cs56hN5CfNqOK_5chaos
FN:36,_RINvMCs2uX8lY3keny_10intent_busNtB3_6Intent3newNtNtCs72dgD6uzVEf_5alloc6string6StringBJ_ReECsfbobxqkLRqr_12e2e_pipeline
FN:36,_RINvMCs2uX8lY3keny_10intent_busNtB3_6Intent3newReBJ_BJ_ECsfbobxqkLRqr_12e2e_pipeline
FN:228,_RNCNvMs2_Cs2uX8lY3keny_10intent_busNtB7_16IntentSubscriber7receive0CsfbobxqkLRqr_12e2e_pipeline
FN:175,_RNCNvMs1_Cs2uX8lY3keny_10intent_busNtB7_9IntentBus7publish0CseVkF4WK7ytE_16kernel_companion
FN:36,_RINvMCs2uX8lY3keny_10intent_busNtB3_6Intent3newNtNtCs72dgD6uzVEf_5alloc6string6StringRBJ_B1l_ECs4616fWembGs_13immune_system
FN:36,_RINvMCs2uX8lY3keny_10intent_busNtB3_6Intent3newReBJ_BJ_ECs4616fWembGs_13immune_system
FN:175,_RNCNvMs1_Cs2uX8lY3keny_10intent_busNtB7_9IntentBus7publish0Cs4616fWembGs_13immune_system
FN:228,_RNCNvMs2_Cs2uX8lY3keny_10intent_busNtB7_16IntentSubscriber7receive0Cs4616fWembGs_13immune_system
FN:36,_RINvMCs2uX8lY3keny_10intent_busNtB3_6Intent3newReBJ_BJ_ECs9xM0BcM6eFm_11integration
FN:200,_RNCNCNvMs1_Cs2uX8lY3keny_10intent_busNtB9_9IntentBus14passes_filters0s_0Cs9xM0BcM6eFm_11integration
FN:183,_RNCNvMs1_Cs2uX8lY3keny_10intent_busNtB7_9IntentBus10add_filter0Cs9xM0BcM6eFm_11integration
FN:189,_RNCNvMs1_Cs2uX8lY3keny_10intent_busNtB7_9IntentBus13remove_filter0Cs9xM0BcM6eFm_11integration
FN:195,_RNCNvMs1_Cs2uX8lY3keny_10intent_busNtB7_9IntentBus14passes_filters0Cs9xM0BcM6eFm_11integration
FN:175,_RNCNvMs1_Cs2uX8lY3keny_10intent_busNtB7_9IntentBus7publish0Cs9xM0BcM6eFm_11integration
FN:228,_RNCNvMs2_Cs2uX8lY3keny_10intent_busNtB7_16IntentSubscriber7receive0Cs9xM0BcM6eFm_11integration
FN:36,_RINvMCs2uX8lY3keny_10intent_busNtB3_6Intent3newReBJ_BJ_ECsdFe3OVMkOQY_11integration
FN:175,_RNCNvMs1_Cs2uX8lY3keny_10intent_busNtB7_9IntentBus7publish0CsdFe3OVMkOQY_11integration
FN:228,_RNCNvMs2_Cs2uX8lY3keny_10intent_busNtB7_16IntentSubscriber7receive0CsdFe3OVMkOQY_11integration
FN:307,_RNvNtCsmCyNiQMRhu_10intent_bus5testss_26disabled_filter_is_ignored
FN:251,_RNvNtCsmCyNiQMRhu_10intent_bus5testss_26publish_reaches_subscriber
FN:277,_RNvNtCsmCyNiQMRhu_10intent_bus5testss_30filter_matches_expected_intent
FN:346,_RNvNtCsmCyNiQMRhu_10intent_bus5testss_35remove_filter_restores_pass_through
FN:329,_RNvNtCsmCyNiQMRhu_10intent_bus5testss_40publish_without_subscribers_fails_closed
FN:369,_RNvNtCsmCyNiQMRhu_10intent_bus5testss_41process_intents_only_for_matching_filters
FN:245,_RNvXNtCsmCyNiQMRhu_10intent_bus5testsNtB2_18RecordingProcessorNtB4_15IntentProcessor7process
FN:141,_RNvMs0_CsmCyNiQMRhu_10intent_busNtB5_15FilterCondition7matches
FN:183,_RNvMs1_CsmCyNiQMRhu_10intent_busNtB5_9IntentBus10add_filter
FN:189,_RNvMs1_CsmCyNiQMRhu_10intent_busNtB5_9IntentBus13remove_filter
FN:195,_RNvMs1_CsmCyNiQMRhu_10intent_busNtB5_9IntentBus14passes_filters
FN:158,_RNvMs1_CsmCyNiQMRhu_10intent_busNtB5_9IntentBus3new
FN:175,_RNvMs1_CsmCyNiQMRhu_10intent_busNtB5_9IntentBus7publish
FN:167,_RNvMs1_CsmCyNiQMRhu_10intent_busNtB5_9IntentBus9subscribe
FN:228,_RNvMs2_CsmCyNiQMRhu_10intent_busNtB5_16IntentSubscriber7receive
FN:131,_RNvMs_CsmCyNiQMRhu_10intent_busNtB4_12IntentFilter6passes
FN:385,_RNCNCNvNtCsmCyNiQMRhu_10intent_bus5testss_41process_intents_only_for_matching_filters00B7_
FN:307,_RNCNvNtCsmCyNiQMRhu_10intent_bus5testss_26disabled_filter_is_ignored0B5_
FN:251,_RNCNvNtCsmCyNiQMRhu_10intent_bus5testss_26publish_reaches_subscriber0B5_
FN:346,_RNCNvNtCsmCyNiQMRhu_10intent_bus5testss_35remove_filter_restores_pass_through0B5_
FN:329,_RNCNvNtCsmCyNiQMRhu_10intent_bus5testss_40publish_without_subscribers_fails_closed0B5_
FN:369,_RNCNvNtCsmCyNiQMRhu_10intent_bus5testss_41process_intents_only_for_matching_filters0B5_
FN:245,_RNCNvXNtCsmCyNiQMRhu_10intent_bus5testsNtB4_18RecordingProcessorNtB6_15IntentProcessor7process0B6_
FN:36,_RINvMCsmCyNiQMRhu_10intent_busNtB3_6Intent3newReBI_BI_EB3_
FN:204,_RINvMs1_CsmCyNiQMRhu_10intent_busNtB6_9IntentBus15process_intentsNtNtB6_5tests18RecordingProcessorEB6_
FN:204,_RNCINvMs1_CsmCyNiQMRhu_10intent_busNtB8_9IntentBus15process_intentsNtNtB8_5tests18RecordingProcessorE0B8_
FN:200,_RNCNCNvMs1_CsmCyNiQMRhu_10intent_busNtB9_9IntentBus14passes_filters0s_0B9_
FN:149,_RNCNvMs0_CsmCyNiQMRhu_10intent_busNtB7_15FilterCondition7matches0B7_
FN:183,_RNCNvMs1_CsmCyNiQMRhu_10intent_busNtB7_9IntentBus10add_filter0B7_
FN:189,_RNCNvMs1_CsmCyNiQMRhu_10intent_busNtB7_9IntentBus13remove_filter0B7_
FN:195,_RNCNvMs1_CsmCyNiQMRhu_10intent_busNtB7_9IntentBus14passes_filters0B7_
FN:175,_RNCNvMs1_CsmCyNiQMRhu_10intent_busNtB7_9IntentBus7publish0B7_
FN:228,_RNCNvMs2_CsmCyNiQMRhu_10intent_busNtB7_16IntentSubscriber7receive0B7_
FN:134,_RNCNvMs_CsmCyNiQMRhu_10intent_busNtB6_12IntentFilter6passes0B6_
FN:36,_RINvMCs2uX8lY3keny_10intent_busNtB3_6Intent3newNtNtCs72dgD6uzVEf_5alloc6string6StringBJ_ReECseLUTM0PnGP2_16kernel_companion
FN:36,_RINvMCs2uX8lY3keny_10intent_busNtB3_6Intent3newNtNtCs72dgD6uzVEf_5alloc6string6StringReB1l_ECseLUTM0PnGP2_16kernel_companion
FN:36,_RINvMCs2uX8lY3keny_10intent_busNtB3_6Intent3newReBJ_BJ_ECseLUTM0PnGP2_16kernel_companion
FN:175,_RNCNvMs1_Cs2uX8lY3keny_10intent_busNtB7_9IntentBus7publish0CseLUTM0PnGP2_16kernel_companion
FN:228,_RNCNvMs2_Cs2uX8lY3keny_10intent_busNtB7_16IntentSubscriber7receive0CseLUTM0PnGP2_16kernel_companion
FN:36,_RINvMCs2uX8lY3keny_10intent_busNtB3_6Intent3newNtNtCs72dgD6uzVEf_5alloc6string6StringBJ_ReECshG9qMLwq2HM_16kernel_companion
FN:36,_RINvMCs2uX8lY3keny_10intent_busNtB3_6Intent3newReBJ_BJ_ECshG9qMLwq2HM_16kernel_companion
FN:228,_RNCNvMs2_Cs2uX8lY3keny_10intent_busNtB7_16IntentSubscriber7receive0CshG9qMLwq2HM_16kernel_companion
FN:36,_RINvMCs2uX8lY3keny_10intent_busNtB3_6Intent3newNtNtCs72dgD6uzVEf_5alloc6string6StringBJ_ReECshJ7ADVmgvQo_11perf_budget
FN:228,_RNCNvMs2_Cs2uX8lY3keny_10intent_busNtB7_16IntentSubscriber7receive0CshJ7ADVmgvQo_11perf_budget
FN:36,_RINvMCs2uX8lY3keny_10intent_busNtB3_6Intent3newReBJ_BJ_ECscMnwIHTVX4e_8pipeline
FN:36,_RINvMCs2uX8lY3keny_10intent_busNtB3_6Intent3newReNtNtCs72dgD6uzVEf_5alloc6string6StringBJ_ECscMnwIHTVX4e_8pipeline
FN:175,_RNCNvMs1_Cs2uX8lY3keny_10intent_busNtB7_9IntentBus7publish0CscMnwIHTVX4e_8pipeline
FN:228,_RNCNvMs2_Cs2uX8lY3keny_10intent_busNtB7_16IntentSubscriber7receive0CscMnwIHTVX4e_8pipeline
FNDA:0,_RINvMCs2uX8lY3keny_10intent_busNtB3_6Intent3newNtNtCs72dgD6uzVEf_5alloc6string6StringRBJ_ReECs3nuw0ZpIt8W_7ank_cli
FNDA:1,_RNCNvMs0_Cs2uX8lY3keny_10intent_busNtB7_15FilterCondition7matches0B7_
FNDA:10,_RNCNvMs_Cs2uX8lY3keny_10intent_busNtB6_12IntentFilter6passes0B6_
FNDA:10,_RNvMs0_Cs2uX8lY3keny_10intent_busNtB5_15FilterCondition7matches
FNDA:6,_RNvMs1_Cs2uX8lY3keny_10intent_busNtB5_9IntentBus10add_filter
FNDA:1,_RNvMs1_Cs2uX8lY3keny_10intent_busNtB5_9IntentBus13remove_filter
FNDA:9,_RNvMs1_Cs2uX8lY3keny_10intent_busNtB5_9IntentBus14passes_filters
FNDA:315,_RNvMs1_Cs2uX8lY3keny_10intent_busNtB5_9IntentBus3new
FNDA:1287,_RNvMs1_Cs2uX8lY3keny_10intent_busNtB5_9IntentBus7publish
FNDA:21,_RNvMs1_Cs2uX8lY3keny_10intent_busNtB5_9IntentBus9subscribe
FNDA:1038,_RNvMs2_Cs2uX8lY3keny_10intent_busNtB5_16IntentSubscriber7receive
FNDA:9,_RNvMs_Cs2uX8lY3keny_10intent_busNtB4_12IntentFilter6passes
FNDA:0,_RINvMCs2uX8lY3keny_10intent_busNtB3_6Intent3newReBJ_BJ_ECshXVcbH1gJqo_7ank_tui
FNDA:3,_RINvMCs2uX8lY3keny_10intent_busNtB3_6Intent3newReBJ_BJ_ECs4ATkuxJMDK0_15agent_scheduler
FNDA:1,_RNCNvMs1_Cs2uX8lY3keny_10intent_busNtB7_9IntentBus7publish0Cs4ATkuxJMDK0_15agent_scheduler
FNDA:1,_RNCNvMs2_Cs2uX8lY3keny_10intent_busNtB7_16IntentSubscriber7receive0Cs4ATkuxJMDK0_15agent_scheduler
FNDA:256,_RINvMCs2uX8lY3keny_10intent_busNtB3_6Intent3newNtNtCs72dgD6uzVEf_5alloc6string6StringBJ_ReECs56hN5CfNqOK_5chaos
FNDA:256,_RNCNvMs1_Cs2uX8lY3keny_10intent_busNtB7_9IntentBus7publish0Cs56hN5CfNqOK_5chaos
FNDA:4,_RINvMCs2uX8lY3keny_10intent_busNtB3_6Intent3newNtNtCs72dgD6uzVEf_5alloc6string6StringBJ_ReECsfbobxqkLRqr_12e2e_pipeline
FNDA:3,_RINvMCs2uX8lY3keny_10intent_busNtB3_6Intent3newReBJ_BJ_ECsfbobxqkLRqr_12e2e_pipeline
FNDA:8,_RNCNvMs2_Cs2uX8lY3keny_10intent_busNtB7_16IntentSubscriber7receive0CsfbobxqkLRqr_12e2e_pipeline
FNDA:1007,_RNCNvMs1_Cs2uX8lY3keny_10intent_busNtB7_9IntentBus7publish0CseVkF4WK7ytE_16kernel_companion
FNDA:7,_RINvMCs2uX8lY3keny_10intent_busNtB3_6Intent3newNtNtCs72dgD6uzVEf_5alloc6string6StringRBJ_B1l_ECs4616fWembGs_13immune_system
FNDA:2,_RINvMCs2uX8lY3keny_10intent_busNtB3_6Intent3newReBJ_BJ_ECs4616fWembGs_13immune_system
FNDA:7,_RNCNvMs1_Cs2uX8lY3keny_10intent_busNtB7_9IntentBus7publish0Cs4616fWembGs_13immune_system
FNDA:1,_RNCNvMs2_Cs2uX8lY3keny_10intent_busNtB7_16IntentSubscriber7receive0Cs4616fWembGs_13immune_system
FNDA:8,_RINvMCs2uX8lY3keny_10intent_busNtB3_6Intent3newReBJ_BJ_ECs9xM0BcM6eFm_11integration
FNDA:9,_RNCNCNvMs1_Cs2uX8lY3keny_10intent_busNtB9_9IntentBus14passes_filters0s_0Cs9xM0BcM6eFm_11integration
FNDA:6,_RNCNvMs1_Cs2uX8lY3keny_10intent_busNtB7_9IntentBus10add_filter0Cs9xM0BcM6eFm_11integration
FNDA:1,_RNCNvMs1_Cs2uX8lY3keny_10intent_busNtB7_9IntentBus13remove_filter0Cs9xM0BcM6eFm_11integration
FNDA:9,_RNCNvMs1_Cs2uX8lY3keny_10intent_busNtB7_9IntentBus14passes_filters0Cs9xM0BcM6eFm_11integration
FNDA:1,_RNCNvMs1_Cs2uX8lY3keny_10intent_busNtB7_9IntentBus7publish0Cs9xM0BcM6eFm_11integration
FNDA:2,_RNCNvMs2_Cs2uX8lY3keny_10intent_busNtB7_16IntentSubscriber7receive0Cs9xM0BcM6eFm_11integration
FNDA:1,_RINvMCs2uX8lY3keny_10intent_busNtB3_6Intent3newReBJ_BJ_ECsdFe3OVMkOQY_11integration
FNDA:1,_RNCNvMs1_Cs2uX8lY3keny_10intent_busNtB7_9IntentBus7publish0CsdFe3OVMkOQY_11integration
FNDA:1,_RNCNvMs2_Cs2uX8lY3keny_10intent_busNtB7_16IntentSubscriber7receive0CsdFe3OVMkOQY_11integration
FNDA:1,_RNvNtCsmCyNiQMRhu_10intent_bus5testss_26disabled_filter_is_ignored
FNDA:1,_RNvNtCsmCyNiQMRhu_10intent_bus5testss_26publish_reaches_subscriber
FNDA:1,_RNvNtCsmCyNiQMRhu_10intent_bus5testss_30filter_matches_expected_intent
FNDA:1,_RNvNtCsmCyNiQMRhu_10intent_bus5testss_35remove_filter_restores_pass_through
FNDA:1,_RNvNtCsmCyNiQMRhu_10intent_bus5testss_40publish_without_subscribers_fails_closed
FNDA:1,_RNvNtCsmCyNiQMRhu_10intent_bus5testss_41process_intents_only_for_matching_filters
FNDA:1,_RNvXNtCsmCyNiQMRhu_10intent_bus5testsNtB2_18RecordingProcessorNtB4_15IntentProcessor7process
FNDA:10,_RNvMs0_CsmCyNiQMRhu_10intent_busNtB5_15FilterCondition7matches
FNDA:3,_RNvMs1_CsmCyNiQMRhu_10intent_busNtB5_9IntentBus10add_filter
FNDA:1,_RNvMs1_CsmCyNiQMRhu_10intent_busNtB5_9IntentBus13remove_filter
FNDA:5,_RNvMs1_CsmCyNiQMRhu_10intent_busNtB5_9IntentBus14passes_filters
FNDA:5,_RNvMs1_CsmCyNiQMRhu_10intent_busNtB5_9IntentBus3new
FNDA:4,_RNvMs1_CsmCyNiQMRhu_10intent_busNtB5_9IntentBus7publish
FNDA:1,_RNvMs1_CsmCyNiQMRhu_10intent_busNtB5_9IntentBus9subscribe
FNDA:1,_RNvMs2_CsmCyNiQMRhu_10intent_busNtB5_16IntentSubscriber7receive
FNDA:4,_RNvMs_CsmCyNiQMRhu_10intent_busNtB4_12IntentFilter6passes
FNDA:1,_RNCNCNvNtCsmCyNiQMRhu_10intent_bus5testss_41process_intents_only_for_matching_filters00B7_
FNDA:1,_RNCNvNtCsmCyNiQMRhu_10intent_bus5testss_26disabled_filter_is_ignored0B5_
FNDA:1,_RNCNvNtCsmCyNiQMRhu_10intent_bus5testss_26publish_reaches_subscriber0B5_
FNDA:1,_RNCNvNtCsmCyNiQMRhu_10intent_bus5testss_35remove_filter_restores_pass_through0B5_
FNDA:1,_RNCNvNtCsmCyNiQMRhu_10intent_bus5testss_40publish_without_subscribers_fails_closed0B5_
FNDA:1,_RNCNvNtCsmCyNiQMRhu_10intent_bus5testss_41process_intents_only_for_matching_filters0B5_
FNDA:1,_RNCNvXNtCsmCyNiQMRhu_10intent_bus5testsNtB4_18RecordingProcessorNtB6_15IntentProcessor7process0B6_
FNDA:7,_RINvMCsmCyNiQMRhu_10intent_busNtB3_6Intent3newReBI_BI_EB3_
FNDA:1,_RINvMs1_CsmCyNiQMRhu_10intent_busNtB6_9IntentBus15process_intentsNtNtB6_5tests18RecordingProcessorEB6_
FNDA:1,_RNCINvMs1_CsmCyNiQMRhu_10intent_busNtB8_9IntentBus15process_intentsNtNtB8_5tests18RecordingProcessorE0B8_
FNDA:3,_RNCNCNvMs1_CsmCyNiQMRhu_10intent_busNtB9_9IntentBus14passes_filters0s_0B9_
FNDA:1,_RNCNvMs0_CsmCyNiQMRhu_10intent_busNtB7_15FilterCondition7matches0B7_
FNDA:3,_RNCNvMs1_CsmCyNiQMRhu_10intent_busNtB7_9IntentBus10add_filter0B7_
FNDA:1,_RNCNvMs1_CsmCyNiQMRhu_10intent_busNtB7_9IntentBus13remove_filter0B7_
FNDA:5,_RNCNvMs1_CsmCyNiQMRhu_10intent_busNtB7_9IntentBus14passes_filters0B7_
FNDA:4,_RNCNvMs1_CsmCyNiQMRhu_10intent_busNtB7_9IntentBus7publish0B7_
FNDA:1,_RNCNvMs2_CsmCyNiQMRhu_10intent_busNtB7_16IntentSubscriber7receive0B7_
FNDA:10,_RNCNvMs_CsmCyNiQMRhu_10intent_busNtB6_12IntentFilter6passes0B6_
FNDA:0,_RINvMCs2uX8lY3keny_10intent_busNtB3_6Intent3newNtNtCs72dgD6uzVEf_5alloc6string6StringBJ_ReECseLUTM0PnGP2_16kernel_companion
FNDA:5,_RINvMCs2uX8lY3keny_10intent_busNtB3_6Intent3newNtNtCs72dgD6uzVEf_5alloc6string6StringReB1l_ECseLUTM0PnGP2_16kernel_companion
FNDA:7,_RINvMCs2uX8lY3keny_10intent_busNtB3_6Intent3newReBJ_BJ_ECseLUTM0PnGP2_16kernel_companion
FNDA:7,_RNCNvMs1_Cs2uX8lY3keny_10intent_busNtB7_9IntentBus7publish0CseLUTM0PnGP2_16kernel_companion
FNDA:13,_RNCNvMs2_Cs2uX8lY3keny_10intent_busNtB7_16IntentSubscriber7receive0CseLUTM0PnGP2_16kernel_companion
FNDA:0,_RINvMCs2uX8lY3keny_10intent_busNtB3_6Intent3newNtNtCs72dgD6uzVEf_5alloc6string6StringBJ_ReECshG9qMLwq2HM_16kernel_companion
FNDA:0,_RINvMCs2uX8lY3keny_10intent_busNtB3_6Intent3newReBJ_BJ_ECshG9qMLwq2HM_16kernel_companion
FNDA:0,_RNCNvMs2_Cs2uX8lY3keny_10intent_busNtB7_16IntentSubscriber7receive0CshG9qMLwq2HM_16kernel_companion
FNDA:1000,_RINvMCs2uX8lY3keny_10intent_busNtB3_6Intent3newNtNtCs72dgD6uzVEf_5alloc6string6StringBJ_ReECshJ7ADVmgvQo_11perf_budget
FNDA:1000,_RNCNvMs2_Cs2uX8lY3keny_10intent_busNtB7_16IntentSubscriber7receive0CshJ7ADVmgvQo_11perf_budget
FNDA:10,_RINvMCs2uX8lY3keny_10intent_busNtB3_6Intent3newReBJ_BJ_ECscMnwIHTVX4e_8pipeline
FNDA:1,_RINvMCs2uX8lY3keny_10intent_busNtB3_6Intent3newReNtNtCs72dgD6uzVEf_5alloc6string6StringBJ_ECscMnwIHTVX4e_8pipeline
FNDA:7,_RNCNvMs1_Cs2uX8lY3keny_10intent_busNtB7_9IntentBus7publish0CscMnwIHTVX4e_8pipeline
FNDA:11,_RNCNvMs2_Cs2uX8lY3keny_10intent_busNtB7_16IntentSubscriber7receive0CscMnwIHTVX4e_8pipeline
FNF:34
FNH:34
DA:36,1314
DA:37,1314
DA:38,1314
DA:39,1314
DA:40,1314
DA:41,1314
DA:42,1314
DA:43,1314
DA:44,1314
DA:45,1314
DA:46,1314
DA:47,1314
DA:48,1314
DA:49,1314
DA:50,1314
DA:51,1314
DA:52,1314
DA:53,1314
DA:131,13
DA:132,13
DA:133,13
DA:134,20
DA:135,13
DA:141,20
DA:142,20
DA:143,8
DA:144,6
DA:145,3
DA:146,2
DA:147,2
DA:148,2
DA:149,2
DA:150,1
DA:152,20
DA:158,320
DA:159,320
DA:160,320
DA:161,320
DA:162,320
DA:163,320
DA:164,320
DA:167,22
DA:168,22
DA:169,22
DA:170,22
DA:171,22
DA:175,1291
DA:176,1291
DA:177,1291
DA:178,1291
DA:179,1291
DA:180,1291
DA:183,9
DA:184,9
DA:185,9
DA:186,9
DA:189,2
DA:190,2
DA:191,2
DA:192,2
DA:195,14
DA:196,14
DA:197,14
DA:198,14
DA:199,14
DA:200,14
DA:201,14
DA:204,1
DA:205,1
DA:206,3
DA:207,2
DA:208,1
DA:209,1
DA:211,0
DA:228,1039
DA:229,1038
DA:230,1033
DA:245,1
DA:246,1
DA:247,1
DA:251,1
DA:253,1
DA:254,1
DA:255,1
DA:257,1
DA:259,1
DA:263,1
DA:264,1
DA:265,1
DA:267,1
DA:268,1
DA:269,1
DA:270,1
DA:271,1
DA:272,1
DA:273,1
DA:274,1
DA:277,1
DA:279,1
DA:281,1
DA:283,1
DA:286,1
DA:287,1
DA:288,1
DA:289,1
DA:291,1
DA:292,1
DA:293,1
DA:294,1
DA:295,1
DA:296,1
DA:297,1
DA:298,1
DA:299,1
DA:300,1
DA:301,1
DA:303,1
DA:304,1
DA:307,1
DA:309,1
DA:310,1
DA:312,1
DA:314,1
DA:318,1
DA:319,1
DA:320,1
DA:321,1
DA:322,1
DA:323,1
DA:325,1
DA:326,1
DA:329,1
DA:330,1
DA:331,1
DA:333,1
DA:335,1
DA:339,1
DA:340,1
DA:341,1
DA:342,1
DA:343,1
DA:346,1
DA:347,1
DA:348,1
DA:350,1
DA:352,1
DA:356,1
DA:357,1
DA:358,1
DA:359,1
DA:360,1
DA:361,1
DA:363,1
DA:364,1
DA:365,1
DA:366,1
DA:369,1
DA:370,1
DA:371,1
DA:373,1
DA:374,1
DA:375,1
DA:376,1
DA:377,1
DA:378,1
DA:379,1
DA:380,1
DA:381,1
DA:383,1
DA:384,1
DA:385,1
DA:386,1
DA:387,0
DA:388,1
DA:390,1
DA:392,1
DA:394,1
DA:397,1
DA:399,1
DA:401,1
DA:405,1
DA:406,1
DA:408,1
DA:409,1
DA:411,1
DA:412,1
DA:413,1
BRF:0
BRH:0
LF:209
LH:207
end_of_record
SF:/home/lokis/Documents/AI-Native-Kernel/crates/kernel-companion/src/bin/ank-cli.rs
FN:11,_RNvCs3nuw0ZpIt8W_7ank_cli4main
FN:161,_RNCNCNCNvCs3nuw0ZpIt8W_7ank_cli4main0s0_00B7_
FN:197,_RNCNCNCNvCs3nuw0ZpIt8W_7ank_cli4main0s1_00B7_
FN:221,_RNCNCNCNvCs3nuw0ZpIt8W_7ank_cli4main0s2_00B7_
FN:151,_RNCNCNCNvCs3nuw0ZpIt8W_7ank_cli4main0s_00B7_
FN:116,_RNCNCNvCs3nuw0ZpIt8W_7ank_cli4main00B5_
FN:159,_RNCNCNvCs3nuw0ZpIt8W_7ank_cli4main0s0_0B5_
FN:195,_RNCNCNvCs3nuw0ZpIt8W_7ank_cli4main0s1_0B5_
FN:219,_RNCNCNvCs3nuw0ZpIt8W_7ank_cli4main0s2_0B5_
FN:149,_RNCNCNvCs3nuw0ZpIt8W_7ank_cli4main0s_0B5_
FN:11,_RNCNvCs3nuw0ZpIt8W_7ank_cli4main0B3_
FN:161,_RNCNCNCNvCs9dJoGzhe17d_7ank_cli4main0s0_00B7_
FN:197,_RNCNCNCNvCs9dJoGzhe17d_7ank_cli4main0s1_00B7_
FN:221,_RNCNCNCNvCs9dJoGzhe17d_7ank_cli4main0s2_00B7_
FN:151,_RNCNCNCNvCs9dJoGzhe17d_7ank_cli4main0s_00B7_
FN:116,_RNCNCNvCs9dJoGzhe17d_7ank_cli4main00B5_
FN:159,_RNCNCNvCs9dJoGzhe17d_7ank_cli4main0s0_0B5_
FN:195,_RNCNCNvCs9dJoGzhe17d_7ank_cli4main0s1_0B5_
FN:219,_RNCNCNvCs9dJoGzhe17d_7ank_cli4main0s2_0B5_
FN:149,_RNCNCNvCs9dJoGzhe17d_7ank_cli4main0s_0B5_
FN:11,_RNCNvCs9dJoGzhe17d_7ank_cli4main0B3_
FN:11,_RNvCs9dJoGzhe17d_7ank_cli4main
FNDA:0,_RNvCs3nuw0ZpIt8W_7ank_cli4main
FNDA:0,_RNCNCNCNvCs3nuw0ZpIt8W_7ank_cli4main0s0_00B7_
FNDA:0,_RNCNCNCNvCs3nuw0ZpIt8W_7ank_cli4main0s1_00B7_
FNDA:0,_RNCNCNCNvCs3nuw0ZpIt8W_7ank_cli4main0s2_00B7_
FNDA:0,_RNCNCNCNvCs3nuw0ZpIt8W_7ank_cli4main0s_00B7_
FNDA:0,_RNCNCNvCs3nuw0ZpIt8W_7ank_cli4main00B5_
FNDA:0,_RNCNCNvCs3nuw0ZpIt8W_7ank_cli4main0s0_0B5_
FNDA:0,_RNCNCNvCs3nuw0ZpIt8W_7ank_cli4main0s1_0B5_
FNDA:0,_RNCNCNvCs3nuw0ZpIt8W_7ank_cli4main0s2_0B5_
FNDA:0,_RNCNCNvCs3nuw0ZpIt8W_7ank_cli4main0s_0B5_
FNDA:0,_RNCNvCs3nuw0ZpIt8W_7ank_cli4main0B3_
FNDA:0,_RNCNCNCNvCs9dJoGzhe17d_7ank_cli4main0s0_00B7_
FNDA:0,_RNCNCNCNvCs9dJoGzhe17d_7ank_cli4main0s1_00B7_
FNDA:0,_RNCNCNCNvCs9dJoGzhe17d_7ank_cli4main0s2_00B7_
FNDA:0,_RNCNCNCNvCs9dJoGzhe17d_7ank_cli4main0s_00B7_
FNDA:0,_RNCNCNvCs9dJoGzhe17d_7ank_cli4main00B5_
FNDA:0,_RNCNCNvCs9dJoGzhe17d_7ank_cli4main0s0_0B5_
FNDA:0,_RNCNCNvCs9dJoGzhe17d_7ank_cli4main0s1_0B5_
FNDA:0,_RNCNCNvCs9dJoGzhe17d_7ank_cli4main0s2_0B5_
FNDA:0,_RNCNCNvCs9dJoGzhe17d_7ank_cli4main0s_0B5_
FNDA:0,_RNCNvCs9dJoGzhe17d_7ank_cli4main0B3_
FNDA:0,_RNvCs9dJoGzhe17d_7ank_cli4main
FNF:11
FNH:0
DA:11,0
DA:12,0
DA:14,0
DA:15,0
DA:16,0
DA:17,0
DA:18,0
DA:19,0
DA:20,0
DA:21,0
DA:22,0
DA:23,0
DA:25,0
DA:26,0
DA:29,0
DA:30,0
DA:31,0
DA:32,0
DA:33,0
DA:38,0
DA:39,0
DA:40,0
DA:41,0
DA:42,0
DA:43,0
DA:44,0
DA:46,0
DA:47,0
DA:48,0
DA:49,0
DA:52,0
DA:53,0
DA:55,0
DA:56,0
DA:57,0
DA:58,0
DA:59,0
DA:60,0
DA:61,0
DA:62,0
DA:63,0
DA:64,0
DA:65,0
DA:67,0
DA:68,0
DA:69,0
DA:70,0
DA:71,0
DA:72,0
DA:73,0
DA:74,0
DA:75,0
DA:77,0
DA:79,0
DA:80,0
DA:81,0
DA:82,0
DA:83,0
DA:84,0
DA:85,0
DA:86,0
DA:87,0
DA:88,0
DA:90,0
DA:91,0
DA:94,0
DA:95,0
DA:96,0
DA:97,0
DA:98,0
DA:99,0
DA:104,0
DA:105,0
DA:106,0
DA:107,0
DA:108,0
DA:112,0
DA:114,0
DA:115,0
DA:116,0
DA:119,0
DA:120,0
DA:121,0
DA:122,0
DA:125,0
DA:126,0
DA:127,0
DA:128,0
DA:129,0
DA:130,0
DA:131,0
DA:132,0
DA:133,0
DA:134,0
DA:135,0
DA:136,0
DA:137,0
DA:138,0
DA:139,0
DA:140,0
DA:141,0
DA:142,0
DA:143,0
DA:144,0
DA:145,0
DA:146,0
DA:147,0
DA:148,0
DA:149,0
DA:150,0
DA:151,0
DA:152,0
DA:153,0
DA:154,0
DA:155,0
DA:156,0
DA:157,0
DA:158,0
DA:159,0
DA:160,0
DA:161,0
DA:162,0
DA:163,0
DA:164,0
DA:165,0
DA:166,0
DA:167,0
DA:168,0
DA:169,0
DA:170,0
DA:171,0
DA:172,0
DA:173,0
DA:174,0
DA:175,0
DA:176,0
DA:177,0
DA:178,0
DA:179,0
DA:180,0
DA:181,0
DA:182,0
DA:183,0
DA:184,0
DA:185,0
DA:186,0
DA:187,0
DA:188,0
DA:189,0
DA:190,0
DA:191,0
DA:192,0
DA:193,0
DA:194,0
DA:195,0
DA:196,0
DA:197,0
DA:198,0
DA:199,0
DA:200,0
DA:201,0
DA:202,0
DA:203,0
DA:204,0
DA:205,0
DA:206,0
DA:207,0
DA:208,0
DA:209,0
DA:210,0
DA:211,0
DA:212,0
DA:213,0
DA:214,0
DA:215,0
DA:216,0
DA:217,0
DA:218,0
DA:219,0
DA:220,0
DA:221,0
DA:222,0
DA:223,0
DA:224,0
DA:225,0
DA:226,0
DA:227,0
DA:228,0
DA:229,0
DA:230,0
DA:231,0
DA:232,0
DA:233,0
DA:234,0
DA:235,0
DA:236,0
DA:237,0
DA:238,0
DA:239,0
DA:240,0
DA:241,0
DA:242,0
DA:243,0
DA:244,0
BRF:0
BRH:0
LF:321
LH:0
end_of_record
SF:/home/lokis/Documents/AI-Native-Kernel/crates/kernel-companion/src/bin/ank-tui.rs
FN:74,_RNvCshXVcbH1gJqo_7ank_tui12fetch_status
FN:107,_RNvCshXVcbH1gJqo_7ank_tui2ui
FN:240,_RNvCshXVcbH1gJqo_7ank_tui4main
FN:39,_RNvMCshXVcbH1gJqo_7ank_tuiNtB2_13DashboardData9from_json
FN:77,_RNCNCNvCshXVcbH1gJqo_7ank_tui12fetch_status00B5_
FN:91,_RNCNCNvCshXVcbH1gJqo_7ank_tui12fetch_status0s0_0B5_
FN:92,_RNCNCNvCshXVcbH1gJqo_7ank_tui12fetch_status0s1_0B5_
FN:93,_RNCNCNvCshXVcbH1gJqo_7ank_tui12fetch_status0s2_0B5_
FN:101,_RNCNCNvCshXVcbH1gJqo_7ank_tui12fetch_status0s3_0B5_
FN:103,_RNCNCNvCshXVcbH1gJqo_7ank_tui12fetch_status0s4_0B5_
FN:87,_RNCNCNvCshXVcbH1gJqo_7ank_tui12fetch_status0s_0B5_
FN:257,_RNCNCNvCshXVcbH1gJqo_7ank_tui4main00B5_
FN:268,_RNCNCNvCshXVcbH1gJqo_7ank_tui4main0s_0B5_
FN:45,_RNCNCNvMCshXVcbH1gJqo_7ank_tuiNtB6_13DashboardData9from_json00B6_
FN:65,_RNCNCNvMCshXVcbH1gJqo_7ank_tuiNtB6_13DashboardData9from_jsons0_00B6_
FN:59,_RNCNCNvMCshXVcbH1gJqo_7ank_tuiNtB6_13DashboardData9from_jsons_00B6_
FN:74,_RNCNvCshXVcbH1gJqo_7ank_tui12fetch_status0B3_
FN:174,_RNCNvCshXVcbH1gJqo_7ank_tui2ui0B3_
FN:215,_RNCNvCshXVcbH1gJqo_7ank_tui2uis0_0B3_
FN:199,_RNCNvCshXVcbH1gJqo_7ank_tui2uis_0B3_
FN:240,_RNCNvCshXVcbH1gJqo_7ank_tui4main0B3_
FN:42,_RNCNvMCshXVcbH1gJqo_7ank_tuiNtB4_13DashboardData9from_json0B4_
FN:63,_RNCNvMCshXVcbH1gJqo_7ank_tuiNtB4_13DashboardData9from_jsons0_0B4_
FN:59,_RNCNvMCshXVcbH1gJqo_7ank_tuiNtB4_13DashboardData9from_jsons_0B4_
FN:77,_RNCNCNvCseMIW3t17p8P_7ank_tui12fetch_status00B5_
FN:91,_RNCNCNvCseMIW3t17p8P_7ank_tui12fetch_status0s0_0B5_
FN:92,_RNCNCNvCseMIW3t17p8P_7ank_tui12fetch_status0s1_0B5_
FN:93,_RNCNCNvCseMIW3t17p8P_7ank_tui12fetch_status0s2_0B5_
FN:101,_RNCNCNvCseMIW3t17p8P_7ank_tui12fetch_status0s3_0B5_
FN:103,_RNCNCNvCseMIW3t17p8P_7ank_tui12fetch_status0s4_0B5_
FN:87,_RNCNCNvCseMIW3t17p8P_7ank_tui12fetch_status0s_0B5_
FN:257,_RNCNCNvCseMIW3t17p8P_7ank_tui4main00B5_
FN:268,_RNCNCNvCseMIW3t17p8P_7ank_tui4main0s_0B5_
FN:45,_RNCNCNvMCseMIW3t17p8P_7ank_tuiNtB6_13DashboardData9from_json00B6_
FN:65,_RNCNCNvMCseMIW3t17p8P_7ank_tuiNtB6_13DashboardData9from_jsons0_00B6_
FN:59,_RNCNCNvMCseMIW3t17p8P_7ank_tuiNtB6_13DashboardData9from_jsons_00B6_
FN:74,_RNCNvCseMIW3t17p8P_7ank_tui12fetch_status0B3_
FN:174,_RNCNvCseMIW3t17p8P_7ank_tui2ui0B3_
FN:215,_RNCNvCseMIW3t17p8P_7ank_tui2uis0_0B3_
FN:199,_RNCNvCseMIW3t17p8P_7ank_tui2uis_0B3_
FN:240,_RNCNvCseMIW3t17p8P_7ank_tui4main0B3_
FN:42,_RNCNvMCseMIW3t17p8P_7ank_tuiNtB4_13DashboardData9from_json0B4_
FN:63,_RNCNvMCseMIW3t17p8P_7ank_tuiNtB4_13DashboardData9from_jsons0_0B4_
FN:59,_RNCNvMCseMIW3t17p8P_7ank_tuiNtB4_13DashboardData9from_jsons_0B4_
FN:74,_RNvCseMIW3t17p8P_7ank_tui12fetch_status
FN:107,_RNvCseMIW3t17p8P_7ank_tui2ui
FN:240,_RNvCseMIW3t17p8P_7ank_tui4main
FN:39,_RNvMCseMIW3t17p8P_7ank_tuiNtB2_13DashboardData9from_json
FNDA:0,_RNvCshXVcbH1gJqo_7ank_tui12fetch_status
FNDA:0,_RNvCshXVcbH1gJqo_7ank_tui2ui
FNDA:0,_RNvCshXVcbH1gJqo_7ank_tui4main
FNDA:0,_RNvMCshXVcbH1gJqo_7ank_tuiNtB2_13DashboardData9from_json
FNDA:0,_RNCNCNvCshXVcbH1gJqo_7ank_tui12fetch_status00B5_
FNDA:0,_RNCNCNvCshXVcbH1gJqo_7ank_tui12fetch_status0s0_0B5_
FNDA:0,_RNCNCNvCshXVcbH1gJqo_7ank_tui12fetch_status0s1_0B5_
FNDA:0,_RNCNCNvCshXVcbH1gJqo_7ank_tui12fetch_status0s2_0B5_
FNDA:0,_RNCNCNvCshXVcbH1gJqo_7ank_tui12fetch_status0s3_0B5_
FNDA:0,_RNCNCNvCshXVcbH1gJqo_7ank_tui12fetch_status0s4_0B5_
FNDA:0,_RNCNCNvCshXVcbH1gJqo_7ank_tui12fetch_status0s_0B5_
FNDA:0,_RNCNCNvCshXVcbH1gJqo_7ank_tui4main00B5_
FNDA:0,_RNCNCNvCshXVcbH1gJqo_7ank_tui4main0s_0B5_
FNDA:0,_RNCNCNvMCshXVcbH1gJqo_7ank_tuiNtB6_13DashboardData9from_json00B6_
FNDA:0,_RNCNCNvMCshXVcbH1gJqo_7ank_tuiNtB6_13DashboardData9from_jsons0_00B6_
FNDA:0,_RNCNCNvMCshXVcbH1gJqo_7ank_tuiNtB6_13DashboardData9from_jsons_00B6_
FNDA:0,_RNCNvCshXVcbH1gJqo_7ank_tui12fetch_status0B3_
FNDA:0,_RNCNvCshXVcbH1gJqo_7ank_tui2ui0B3_
FNDA:0,_RNCNvCshXVcbH1gJqo_7ank_tui2uis0_0B3_
FNDA:0,_RNCNvCshXVcbH1gJqo_7ank_tui2uis_0B3_
FNDA:0,_RNCNvCshXVcbH1gJqo_7ank_tui4main0B3_
FNDA:0,_RNCNvMCshXVcbH1gJqo_7ank_tuiNtB4_13DashboardData9from_json0B4_
FNDA:0,_RNCNvMCshXVcbH1gJqo_7ank_tuiNtB4_13DashboardData9from_jsons0_0B4_
FNDA:0,_RNCNvMCshXVcbH1gJqo_7ank_tuiNtB4_13DashboardData9from_jsons_0B4_
FNDA:0,_RNCNCNvCseMIW3t17p8P_7ank_tui12fetch_status00B5_
FNDA:0,_RNCNCNvCseMIW3t17p8P_7ank_tui12fetch_status0s0_0B5_
FNDA:0,_RNCNCNvCseMIW3t17p8P_7ank_tui12fetch_status0s1_0B5_
FNDA:0,_RNCNCNvCseMIW3t17p8P_7ank_tui12fetch_status0s2_0B5_
FNDA:0,_RNCNCNvCseMIW3t17p8P_7ank_tui12fetch_status0s3_0B5_
FNDA:0,_RNCNCNvCseMIW3t17p8P_7ank_tui12fetch_status0s4_0B5_
FNDA:0,_RNCNCNvCseMIW3t17p8P_7ank_tui12fetch_status0s_0B5_
FNDA:0,_RNCNCNvCseMIW3t17p8P_7ank_tui4main00B5_
FNDA:0,_RNCNCNvCseMIW3t17p8P_7ank_tui4main0s_0B5_
FNDA:0,_RNCNCNvMCseMIW3t17p8P_7ank_tuiNtB6_13DashboardData9from_json00B6_
FNDA:0,_RNCNCNvMCseMIW3t17p8P_7ank_tuiNtB6_13DashboardData9from_jsons0_00B6_
FNDA:0,_RNCNCNvMCseMIW3t17p8P_7ank_tuiNtB6_13DashboardData9from_jsons_00B6_
FNDA:0,_RNCNvCseMIW3t17p8P_7ank_tui12fetch_status0B3_
FNDA:0,_RNCNvCseMIW3t17p8P_7ank_tui2ui0B3_
FNDA:0,_RNCNvCseMIW3t17p8P_7ank_tui2uis0_0B3_
FNDA:0,_RNCNvCseMIW3t17p8P_7ank_tui2uis_0B3_
FNDA:0,_RNCNvCseMIW3t17p8P_7ank_tui4main0B3_
FNDA:0,_RNCNvMCseMIW3t17p8P_7ank_tuiNtB4_13DashboardData9from_json0B4_
FNDA:0,_RNCNvMCseMIW3t17p8P_7ank_tuiNtB4_13DashboardData9from_jsons0_0B4_
FNDA:0,_RNCNvMCseMIW3t17p8P_7ank_tuiNtB4_13DashboardData9from_jsons_0B4_
FNDA:0,_RNvCseMIW3t17p8P_7ank_tui12fetch_status
FNDA:0,_RNvCseMIW3t17p8P_7ank_tui2ui
FNDA:0,_RNvCseMIW3t17p8P_7ank_tui4main
FNDA:0,_RNvMCseMIW3t17p8P_7ank_tuiNtB2_13DashboardData9from_json
FNF:24
FNH:0
DA:39,0
DA:40,0
DA:41,0
DA:42,0
DA:43,0
DA:44,0
DA:45,0
DA:46,0
DA:47,0
DA:48,0
DA:49,0
DA:50,0
DA:51,0
DA:52,0
DA:55,0
DA:56,0
DA:57,0
DA:58,0
DA:59,0
DA:60,0
DA:61,0
DA:62,0
DA:63,0
DA:64,0
DA:65,0
DA:66,0
DA:67,0
DA:68,0
DA:69,0
DA:71,0
DA:74,0
DA:75,0
DA:76,0
DA:77,0
DA:79,0
DA:81,0
DA:83,0
DA:87,0
DA:88,0
DA:89,0
DA:90,0
DA:91,0
DA:92,0
DA:93,0
DA:95,0
DA:96,0
DA:97,0
DA:98,0
DA:99,0
DA:100,0
DA:101,0
DA:103,0
DA:104,0
DA:105,0
DA:107,0
DA:108,0
DA:109,0
DA:110,0
DA:111,0
DA:112,0
DA:115,0
DA:117,0
DA:118,0
DA:119,0
DA:121,0
DA:122,0
DA:123,0
DA:124,0
DA:126,0
DA:127,0
DA:129,0
DA:130,0
DA:131,0
DA:132,0
DA:133,0
DA:136,0
DA:137,0
DA:138,0
DA:139,0
DA:140,0
DA:141,0
DA:142,0
DA:143,0
DA:146,0
DA:147,0
DA:149,0
DA:151,0
DA:152,0
DA:153,0
DA:155,0
DA:156,0
DA:157,0
DA:160,0
DA:161,0
DA:162,0
DA:163,0
DA:164,0
DA:165,0
DA:166,0
DA:169,0
DA:170,0
DA:172,0
DA:173,0
DA:174,0
DA:175,0
DA:176,0
DA:177,0
DA:179,0
DA:180,0
DA:181,0
DA:184,0
DA:185,0
DA:186,0
DA:187,0
DA:188,0
DA:189,0
DA:190,0
DA:191,0
DA:194,0
DA:195,0
DA:197,0
DA:198,0
DA:199,0
DA:200,0
DA:202,0
DA:203,0
DA:204,0
DA:205,0
DA:207,0
DA:210,0
DA:211,0
DA:213,0
DA:214,0
DA:215,0
DA:216,0
DA:220,0
DA:221,0
DA:223,0
DA:224,0
DA:225,0
DA:226,0
DA:228,0
DA:231,0
DA:233,0
DA:235,0
DA:236,0
DA:237,0
DA:240,0
DA:241,0
DA:242,0
DA:243,0
DA:245,0
DA:246,0
DA:248,0
DA:249,0
DA:250,0
DA:251,0
DA:252,0
DA:253,0
DA:254,0
DA:257,0
DA:261,0
DA:262,0
DA:263,0
DA:264,0
DA:265,0
DA:268,0
DA:271,0
DA:272,0
DA:273,0
DA:274,0
DA:275,0
DA:276,0
DA:277,0
DA:280,0
DA:281,0
DA:282,0
DA:283,0
DA:284,0
DA:285,0
BRF:0
BRH:0
LF:200
LH:0
end_of_record
SF:/home/lokis/Documents/AI-Native-Kernel/crates/kernel-companion/src/config.rs
FN:68,_RNCNCNvMNtCseVkF4WK7ytE_16kernel_companion6configNtB6_6Config17find_default_paths0_00B8_
FN:57,_RNCNvMNtCseVkF4WK7ytE_16kernel_companion6configNtB4_6Config17find_default_path0B6_
FN:68,_RNCNvMNtCseVkF4WK7ytE_16kernel_companion6configNtB4_6Config17find_default_paths0_0B6_
FN:58,_RNCNvMNtCseVkF4WK7ytE_16kernel_companion6configNtB4_6Config17find_default_paths_0B6_
FN:471,_RNCNvMs9_NtCseVkF4WK7ytE_16kernel_companion6configNtB7_9LsmConfig16allowed_syscalls0B9_
FN:491,_RNCNvNtCseVkF4WK7ytE_16kernel_companion6config20default_lsm_profiles0B5_
FN:503,_RNCNvNtCseVkF4WK7ytE_16kernel_companion6config20default_lsm_profiless0_0B5_
FN:497,_RNCNvNtCseVkF4WK7ytE_16kernel_companion6config20default_lsm_profiless_0B5_
FN:52,_RNvMNtCseVkF4WK7ytE_16kernel_companion6configNtB2_6Config17find_default_path
FN:81,_RNvMNtCseVkF4WK7ytE_16kernel_companion6configNtB2_6Config19apply_env_overrides
FN:34,_RNvMNtCseVkF4WK7ytE_16kernel_companion6configNtB2_6Config4load
FN:46,_RNvMNtCseVkF4WK7ytE_16kernel_companion6configNtB2_6Config9load_from
FN:468,_RNvMs9_NtCseVkF4WK7ytE_16kernel_companion6configNtB5_9LsmConfig16allowed_syscalls
FN:477,_RNvMs9_NtCseVkF4WK7ytE_16kernel_companion6configNtB5_9LsmConfig19active_profile_name
FN:303,_RNvNtCseVkF4WK7ytE_16kernel_companion6config13default_alpha
FN:583,_RNvNtCseVkF4WK7ytE_16kernel_companion6config13dev_allowlist
FN:264,_RNvNtCseVkF4WK7ytE_16kernel_companion6config15default_hot_cap
FN:240,_RNvNtCseVkF4WK7ytE_16kernel_companion6config15default_next_id
FN:270,_RNvNtCseVkF4WK7ytE_16kernel_companion6config15default_rocksdb
FN:267,_RNvNtCseVkF4WK7ytE_16kernel_companion6config16default_warm_cap
FN:509,_RNvNtCseVkF4WK7ytE_16kernel_companion6config16strict_allowlist
FN:168,_RNvNtCseVkF4WK7ytE_16kernel_companion6config17default_log_level
FN:513,_RNvNtCseVkF4WK7ytE_16kernel_companion6config17runtime_allowlist
FN:231,_RNvNtCseVkF4WK7ytE_16kernel_companion6config18default_max_agents
FN:405,_RNvNtCseVkF4WK7ytE_16kernel_companion6config18default_quarantine
FN:195,_RNvNtCseVkF4WK7ytE_16kernel_companion6config18default_uds_socket
FN:482,_RNvNtCseVkF4WK7ytE_16kernel_companion6config19default_lsm_profile
FN:402,_RNvNtCseVkF4WK7ytE_16kernel_companion6config19default_max_anomaly
FN:234,_RNvNtCseVkF4WK7ytE_16kernel_companion6config19default_max_restart
FN:312,_RNvNtCseVkF4WK7ytE_16kernel_companion6config19default_weight_cost
FN:300,_RNvNtCseVkF4WK7ytE_16kernel_companion6config20default_compute_mode
FN:486,_RNvNtCseVkF4WK7ytE_16kernel_companion6config20default_lsm_profiles
FN:204,_RNvNtCseVkF4WK7ytE_16kernel_companion6config20default_metrics_addr
FN:309,_RNvNtCseVkF4WK7ytE_16kernel_companion6config20default_weight_power
FN:435,_RNvNtCseVkF4WK7ytE_16kernel_companion6config21default_ebpf_fallback
FN:333,_RNvNtCseVkF4WK7ytE_16kernel_companion6config22default_audit_log_path
FN:396,_RNvNtCseVkF4WK7ytE_16kernel_companion6config22default_bcell_interval
FN:411,_RNvNtCseVkF4WK7ytE_16kernel_companion6config22default_deny_threshold
FN:198,_RNvNtCseVkF4WK7ytE_16kernel_companion6config22default_intent_bus_cap
FN:414,_RNvNtCseVkF4WK7ytE_16kernel_companion6config22default_kill_threshold
FN:336,_RNvNtCseVkF4WK7ytE_16kernel_companion6config22default_max_issue_rate
FN:201,_RNvNtCseVkF4WK7ytE_16kernel_companion6config22default_monitoring_cap
FN:408,_RNvNtCseVkF4WK7ytE_16kernel_companion6config22default_rate_threshold
FN:393,_RNvNtCseVkF4WK7ytE_16kernel_companion6config22default_tcell_interval
FN:306,_RNvNtCseVkF4WK7ytE_16kernel_companion6config22default_weight_latency
FN:438,_RNvNtCseVkF4WK7ytE_16kernel_companion6config26default_tracepoint_program
FN:354,_RNvNtCseVkF4WK7ytE_16kernel_companion6config27default_intent_bus_capacity
FN:399,_RNvNtCseVkF4WK7ytE_16kernel_companion6config27default_macrophage_interval
FN:237,_RNvNtCseVkF4WK7ytE_16kernel_companion6config27default_supervisor_interval
FN:185,_RNvXs0_NtCseVkF4WK7ytE_16kernel_companion6configNtB5_21KernelCompanionConfigNtNtCs13ARFDxRLcQ_4core7default7Default7default
FN:221,_RNvXs1_NtCseVkF4WK7ytE_16kernel_companion6configNtB5_20AgentSchedulerConfigNtNtCs13ARFDxRLcQ_4core7default7Default7default
FN:255,_RNvXs2_NtCseVkF4WK7ytE_16kernel_companion6configNtB5_19ContextMemoryConfigNtNtCs13ARFDxRLcQ_4core7default7Default7default
FN:289,_RNvXs3_NtCseVkF4WK7ytE_16kernel_companion6configNtB5_22ComputeSchedulerConfigNtNtCs13ARFDxRLcQ_4core7default7Default7default
FN:325,_RNvXs4_NtCseVkF4WK7ytE_16kernel_companion6configNtB5_24CapabilitySecurityConfigNtNtCs13ARFDxRLcQ_4core7default7Default7default
FN:347,_RNvXs5_NtCseVkF4WK7ytE_16kernel_companion6configNtB5_15IntentBusConfigNtNtCs13ARFDxRLcQ_4core7default7Default7default
FN:379,_RNvXs6_NtCseVkF4WK7ytE_16kernel_companion6configNtB5_18ImmuneSystemConfigNtNtCs13ARFDxRLcQ_4core7default7Default7default
FN:427,_RNvXs7_NtCseVkF4WK7ytE_16kernel_companion6configNtB5_10EbpfConfigNtNtCs13ARFDxRLcQ_4core7default7Default7default
FN:457,_RNvXs8_NtCseVkF4WK7ytE_16kernel_companion6configNtB5_9LsmConfigNtNtCs13ARFDxRLcQ_4core7default7Default7default
FN:161,_RNvXs_NtCseVkF4WK7ytE_16kernel_companion6configNtB4_13GeneralConfigNtNtCs13ARFDxRLcQ_4core7default7Default7default
FN:68,_RNCNCNvMNtCseLUTM0PnGP2_16kernel_companion6configNtB6_6Config17find_default_paths0_00B8_
FN:57,_RNCNvMNtCseLUTM0PnGP2_16kernel_companion6configNtB4_6Config17find_default_path0B6_
FN:68,_RNCNvMNtCseLUTM0PnGP2_16kernel_companion6configNtB4_6Config17find_default_paths0_0B6_
FN:58,_RNCNvMNtCseLUTM0PnGP2_16kernel_companion6configNtB4_6Config17find_default_paths_0B6_
FN:52,_RNvMNtCseLUTM0PnGP2_16kernel_companion6configNtB2_6Config17find_default_path
FN:81,_RNvMNtCseLUTM0PnGP2_16kernel_companion6configNtB2_6Config19apply_env_overrides
FN:34,_RNvMNtCseLUTM0PnGP2_16kernel_companion6configNtB2_6Config4load
FN:46,_RNvMNtCseLUTM0PnGP2_16kernel_companion6configNtB2_6Config9load_from
FN:468,_RNvMs9_NtCseLUTM0PnGP2_16kernel_companion6configNtB5_9LsmConfig16allowed_syscalls
FN:477,_RNvMs9_NtCseLUTM0PnGP2_16kernel_companion6configNtB5_9LsmConfig19active_profile_name
FN:303,_RNvNtCseLUTM0PnGP2_16kernel_companion6config13default_alpha
FN:583,_RNvNtCseLUTM0PnGP2_16kernel_companion6config13dev_allowlist
FN:264,_RNvNtCseLUTM0PnGP2_16kernel_companion6config15default_hot_cap
FN:240,_RNvNtCseLUTM0PnGP2_16kernel_companion6config15default_next_id
FN:270,_RNvNtCseLUTM0PnGP2_16kernel_companion6config15default_rocksdb
FN:267,_RNvNtCseLUTM0PnGP2_16kernel_companion6config16default_warm_cap
FN:509,_RNvNtCseLUTM0PnGP2_16kernel_companion6config16strict_allowlist
FN:168,_RNvNtCseLUTM0PnGP2_16kernel_companion6config17default_log_level
FN:513,_RNvNtCseLUTM0PnGP2_16kernel_companion6config17runtime_allowlist
FN:231,_RNvNtCseLUTM0PnGP2_16kernel_companion6config18default_max_agents
FN:405,_RNvNtCseLUTM0PnGP2_16kernel_companion6config18default_quarantine
FN:195,_RNvNtCseLUTM0PnGP2_16kernel_companion6config18default_uds_socket
FN:482,_RNvNtCseLUTM0PnGP2_16kernel_companion6config19default_lsm_profile
FN:402,_RNvNtCseLUTM0PnGP2_16kernel_companion6config19default_max_anomaly
FN:234,_RNvNtCseLUTM0PnGP2_16kernel_companion6config19default_max_restart
FN:312,_RNvNtCseLUTM0PnGP2_16kernel_companion6config19default_weight_cost
FN:300,_RNvNtCseLUTM0PnGP2_16kernel_companion6config20default_compute_mode
FN:486,_RNvNtCseLUTM0PnGP2_16kernel_companion6config20default_lsm_profiles
FN:204,_RNvNtCseLUTM0PnGP2_16kernel_companion6config20default_metrics_addr
FN:309,_RNvNtCseLUTM0PnGP2_16kernel_companion6config20default_weight_power
FN:435,_RNvNtCseLUTM0PnGP2_16kernel_companion6config21default_ebpf_fallback
FN:333,_RNvNtCseLUTM0PnGP2_16kernel_companion6config22default_audit_log_path
FN:396,_RNvNtCseLUTM0PnGP2_16kernel_companion6config22default_bcell_interval
FN:411,_RNvNtCseLUTM0PnGP2_16kernel_companion6config22default_deny_threshold
FN:198,_RNvNtCseLUTM0PnGP2_16kernel_companion6config22default_intent_bus_cap
FN:414,_RNvNtCseLUTM0PnGP2_16kernel_companion6config22default_kill_threshold
FN:336,_RNvNtCseLUTM0PnGP2_16kernel_companion6config22default_max_issue_rate
FN:201,_RNvNtCseLUTM0PnGP2_16kernel_companion6config22default_monitoring_cap
FN:408,_RNvNtCseLUTM0PnGP2_16kernel_companion6config22default_rate_threshold
FN:393,_RNvNtCseLUTM0PnGP2_16kernel_companion6config22default_tcell_interval
FN:306,_RNvNtCseLUTM0PnGP2_16kernel_companion6config22default_weight_latency
FN:438,_RNvNtCseLUTM0PnGP2_16kernel_companion6config26default_tracepoint_program
FN:354,_RNvNtCseLUTM0PnGP2_16kernel_companion6config27default_intent_bus_capacity
FN:399,_RNvNtCseLUTM0PnGP2_16kernel_companion6config27default_macrophage_interval
FN:237,_RNvNtCseLUTM0PnGP2_16kernel_companion6config27default_supervisor_interval
FN:185,_RNvXs0_NtCseLUTM0PnGP2_16kernel_companion6configNtB5_21KernelCompanionConfigNtNtCs13ARFDxRLcQ_4core7default7Default7default
FN:221,_RNvXs1_NtCseLUTM0PnGP2_16kernel_companion6configNtB5_20AgentSchedulerConfigNtNtCs13ARFDxRLcQ_4core7default7Default7default
FN:255,_RNvXs2_NtCseLUTM0PnGP2_16kernel_companion6configNtB5_19ContextMemoryConfigNtNtCs13ARFDxRLcQ_4core7default7Default7default
FN:289,_RNvXs3_NtCseLUTM0PnGP2_16kernel_companion6configNtB5_22ComputeSchedulerConfigNtNtCs13ARFDxRLcQ_4core7default7Default7default
FN:325,_RNvXs4_NtCseLUTM0PnGP2_16kernel_companion6configNtB5_24CapabilitySecurityConfigNtNtCs13ARFDxRLcQ_4core7default7Default7default
FN:347,_RNvXs5_NtCseLUTM0PnGP2_16kernel_companion6configNtB5_15IntentBusConfigNtNtCs13ARFDxRLcQ_4core7default7Default7default
FN:379,_RNvXs6_NtCseLUTM0PnGP2_16kernel_companion6configNtB5_18ImmuneSystemConfigNtNtCs13ARFDxRLcQ_4core7default7Default7default
FN:427,_RNvXs7_NtCseLUTM0PnGP2_16kernel_companion6configNtB5_10EbpfConfigNtNtCs13ARFDxRLcQ_4core7default7Default7default
FN:457,_RNvXs8_NtCseLUTM0PnGP2_16kernel_companion6configNtB5_9LsmConfigNtNtCs13ARFDxRLcQ_4core7default7Default7default
FN:161,_RNvXs_NtCseLUTM0PnGP2_16kernel_companion6configNtB4_13GeneralConfigNtNtCs13ARFDxRLcQ_4core7default7Default7default
FN:471,_RNCNvMs9_NtCseLUTM0PnGP2_16kernel_companion6configNtB7_9LsmConfig16allowed_syscalls0B9_
FN:491,_RNCNvNtCseLUTM0PnGP2_16kernel_companion6config20default_lsm_profiles0B5_
FN:503,_RNCNvNtCseLUTM0PnGP2_16kernel_companion6config20default_lsm_profiless0_0B5_
FN:497,_RNCNvNtCseLUTM0PnGP2_16kernel_companion6config20default_lsm_profiless_0B5_
FN:666,_RNvNtNtCseLUTM0PnGP2_16kernel_companion6config5testss_30default_lsm_profile_is_runtime
FN:688,_RNvNtNtCseLUTM0PnGP2_16kernel_companion6config5testss_36strict_profile_is_small_and_explicit
FN:675,_RNvNtNtCseLUTM0PnGP2_16kernel_companion6config5testss_48runtime_profile_contains_common_runtime_syscalls
FNDA:0,_RNCNCNvMNtCseVkF4WK7ytE_16kernel_companion6configNtB6_6Config17find_default_paths0_00B8_
FNDA:0,_RNCNvMNtCseVkF4WK7ytE_16kernel_companion6configNtB4_6Config17find_default_path0B6_
FNDA:0,_RNCNvMNtCseVkF4WK7ytE_16kernel_companion6configNtB4_6Config17find_default_paths0_0B6_
FNDA:0,_RNCNvMNtCseVkF4WK7ytE_16kernel_companion6configNtB4_6Config17find_default_paths_0B6_
FNDA:0,_RNCNvMs9_NtCseVkF4WK7ytE_16kernel_companion6configNtB7_9LsmConfig16allowed_syscalls0B9_
FNDA:16,_RNCNvNtCseVkF4WK7ytE_16kernel_companion6config20default_lsm_profiles0B5_
FNDA:292,_RNCNvNtCseVkF4WK7ytE_16kernel_companion6config20default_lsm_profiless0_0B5_
FNDA:260,_RNCNvNtCseVkF4WK7ytE_16kernel_companion6config20default_lsm_profiless_0B5_
FNDA:0,_RNvMNtCseVkF4WK7ytE_16kernel_companion6configNtB2_6Config17find_default_path
FNDA:0,_RNvMNtCseVkF4WK7ytE_16kernel_companion6configNtB2_6Config19apply_env_overrides
FNDA:0,_RNvMNtCseVkF4WK7ytE_16kernel_companion6configNtB2_6Config4load
FNDA:0,_RNvMNtCseVkF4WK7ytE_16kernel_companion6configNtB2_6Config9load_from
FNDA:0,_RNvMs9_NtCseVkF4WK7ytE_16kernel_companion6configNtB5_9LsmConfig16allowed_syscalls
FNDA:4,_RNvMs9_NtCseVkF4WK7ytE_16kernel_companion6configNtB5_9LsmConfig19active_profile_name
FNDA:0,_RNvNtCseVkF4WK7ytE_16kernel_companion6config13default_alpha
FNDA:4,_RNvNtCseVkF4WK7ytE_16kernel_companion6config13dev_allowlist
FNDA:0,_RNvNtCseVkF4WK7ytE_16kernel_companion6config15default_hot_cap
FNDA:0,_RNvNtCseVkF4WK7ytE_16kernel_companion6config15default_next_id
FNDA:0,_RNvNtCseVkF4WK7ytE_16kernel_companion6config15default_rocksdb
FNDA:0,_RNvNtCseVkF4WK7ytE_16kernel_companion6config16default_warm_cap
FNDA:4,_RNvNtCseVkF4WK7ytE_16kernel_companion6config16strict_allowlist
FNDA:0,_RNvNtCseVkF4WK7ytE_16kernel_companion6config17default_log_level
FNDA:4,_RNvNtCseVkF4WK7ytE_16kernel_companion6config17runtime_allowlist
FNDA:0,_RNvNtCseVkF4WK7ytE_16kernel_companion6config18default_max_agents
FNDA:0,_RNvNtCseVkF4WK7ytE_16kernel_companion6config18default_quarantine
FNDA:0,_RNvNtCseVkF4WK7ytE_16kernel_companion6config18default_uds_socket
FNDA:4,_RNvNtCseVkF4WK7ytE_16kernel_companion6config19default_lsm_profile
FNDA:0,_RNvNtCseVkF4WK7ytE_16kernel_companion6config19default_max_anomaly
FNDA:0,_RNvNtCseVkF4WK7ytE_16kernel_companion6config19default_max_restart
FNDA:0,_RNvNtCseVkF4WK7ytE_16kernel_companion6config19default_weight_cost
FNDA:0,_RNvNtCseVkF4WK7ytE_16kernel_companion6config20default_compute_mode
FNDA:4,_RNvNtCseVkF4WK7ytE_16kernel_companion6config20default_lsm_profiles
FNDA:0,_RNvNtCseVkF4WK7ytE_16kernel_companion6config20default_metrics_addr
FNDA:0,_RNvNtCseVkF4WK7ytE_16kernel_companion6config20default_weight_power
FNDA:0,_RNvNtCseVkF4WK7ytE_16kernel_companion6config21default_ebpf_fallback
FNDA:0,_RNvNtCseVkF4WK7ytE_16kernel_companion6config22default_audit_log_path
FNDA:0,_RNvNtCseVkF4WK7ytE_16kernel_companion6config22default_bcell_interval
FNDA:0,_RNvNtCseVkF4WK7ytE_16kernel_companion6config22default_deny_threshold
FNDA:0,_RNvNtCseVkF4WK7ytE_16kernel_companion6config22default_intent_bus_cap
FNDA:0,_RNvNtCseVkF4WK7ytE_16kernel_companion6config22default_kill_threshold
FNDA:0,_RNvNtCseVkF4WK7ytE_16kernel_companion6config22default_max_issue_rate
FNDA:0,_RNvNtCseVkF4WK7ytE_16kernel_companion6config22default_monitoring_cap
FNDA:0,_RNvNtCseVkF4WK7ytE_16kernel_companion6config22default_rate_threshold
FNDA:0,_RNvNtCseVkF4WK7ytE_16kernel_companion6config22default_tcell_interval
FNDA:0,_RNvNtCseVkF4WK7ytE_16kernel_companion6config22default_weight_latency
FNDA:0,_RNvNtCseVkF4WK7ytE_16kernel_companion6config26default_tracepoint_program
FNDA:0,_RNvNtCseVkF4WK7ytE_16kernel_companion6config27default_intent_bus_capacity
FNDA:0,_RNvNtCseVkF4WK7ytE_16kernel_companion6config27default_macrophage_interval
FNDA:0,_RNvNtCseVkF4WK7ytE_16kernel_companion6config27default_supervisor_interval
FNDA:0,_RNvXs0_NtCseVkF4WK7ytE_16kernel_companion6configNtB5_21KernelCompanionConfigNtNtCs13ARFDxRLcQ_4core7default7Default7default
FNDA:0,_RNvXs1_NtCseVkF4WK7ytE_16kernel_companion6configNtB5_20AgentSchedulerConfigNtNtCs13ARFDxRLcQ_4core7default7Default7default
FNDA:0,_RNvXs2_NtCseVkF4WK7ytE_16kernel_companion6configNtB5_19ContextMemoryConfigNtNtCs13ARFDxRLcQ_4core7default7Default7default
FNDA:0,_RNvXs3_NtCseVkF4WK7ytE_16kernel_companion6configNtB5_22ComputeSchedulerConfigNtNtCs13ARFDxRLcQ_4core7default7Default7default
FNDA:0,_RNvXs4_NtCseVkF4WK7ytE_16kernel_companion6configNtB5_24CapabilitySecurityConfigNtNtCs13ARFDxRLcQ_4core7default7Default7default
FNDA:0,_RNvXs5_NtCseVkF4WK7ytE_16kernel_companion6configNtB5_15IntentBusConfigNtNtCs13ARFDxRLcQ_4core7default7Default7default
FNDA:0,_RNvXs6_NtCseVkF4WK7ytE_16kernel_companion6configNtB5_18ImmuneSystemConfigNtNtCs13ARFDxRLcQ_4core7default7Default7default
FNDA:0,_RNvXs7_NtCseVkF4WK7ytE_16kernel_companion6configNtB5_10EbpfConfigNtNtCs13ARFDxRLcQ_4core7default7Default7default
FNDA:4,_RNvXs8_NtCseVkF4WK7ytE_16kernel_companion6configNtB5_9LsmConfigNtNtCs13ARFDxRLcQ_4core7default7Default7default
FNDA:0,_RNvXs_NtCseVkF4WK7ytE_16kernel_companion6configNtB4_13GeneralConfigNtNtCs13ARFDxRLcQ_4core7default7Default7default
FNDA:0,_RNCNCNvMNtCseLUTM0PnGP2_16kernel_companion6configNtB6_6Config17find_default_paths0_00B8_
FNDA:0,_RNCNvMNtCseLUTM0PnGP2_16kernel_companion6configNtB4_6Config17find_default_path0B6_
FNDA:0,_RNCNvMNtCseLUTM0PnGP2_16kernel_companion6configNtB4_6Config17find_default_paths0_0B6_
FNDA:0,_RNCNvMNtCseLUTM0PnGP2_16kernel_companion6configNtB4_6Config17find_default_paths_0B6_
FNDA:0,_RNvMNtCseLUTM0PnGP2_16kernel_companion6configNtB2_6Config17find_default_path
FNDA:0,_RNvMNtCseLUTM0PnGP2_16kernel_companion6configNtB2_6Config19apply_env_overrides
FNDA:0,_RNvMNtCseLUTM0PnGP2_16kernel_companion6configNtB2_6Config4load
FNDA:0,_RNvMNtCseLUTM0PnGP2_16kernel_companion6configNtB2_6Config9load_from
FNDA:1,_RNvMs9_NtCseLUTM0PnGP2_16kernel_companion6configNtB5_9LsmConfig16allowed_syscalls
FNDA:20,_RNvMs9_NtCseLUTM0PnGP2_16kernel_companion6configNtB5_9LsmConfig19active_profile_name
FNDA:3,_RNvNtCseLUTM0PnGP2_16kernel_companion6config13default_alpha
FNDA:22,_RNvNtCseLUTM0PnGP2_16kernel_companion6config13dev_allowlist
FNDA:3,_RNvNtCseLUTM0PnGP2_16kernel_companion6config15default_hot_cap
FNDA:3,_RNvNtCseLUTM0PnGP2_16kernel_companion6config15default_next_id
FNDA:3,_RNvNtCseLUTM0PnGP2_16kernel_companion6config15default_rocksdb
FNDA:3,_RNvNtCseLUTM0PnGP2_16kernel_companion6config16default_warm_cap
FNDA:22,_RNvNtCseLUTM0PnGP2_16kernel_companion6config16strict_allowlist
FNDA:3,_RNvNtCseLUTM0PnGP2_16kernel_companion6config17default_log_level
FNDA:22,_RNvNtCseLUTM0PnGP2_16kernel_companion6config17runtime_allowlist
FNDA:3,_RNvNtCseLUTM0PnGP2_16kernel_companion6config18default_max_agents
FNDA:3,_RNvNtCseLUTM0PnGP2_16kernel_companion6config18default_quarantine
FNDA:3,_RNvNtCseLUTM0PnGP2_16kernel_companion6config18default_uds_socket
FNDA:22,_RNvNtCseLUTM0PnGP2_16kernel_companion6config19default_lsm_profile
FNDA:3,_RNvNtCseLUTM0PnGP2_16kernel_companion6config19default_max_anomaly
FNDA:3,_RNvNtCseLUTM0PnGP2_16kernel_companion6config19default_max_restart
FNDA:3,_RNvNtCseLUTM0PnGP2_16kernel_companion6config19default_weight_cost
FNDA:3,_RNvNtCseLUTM0PnGP2_16kernel_companion6config20default_compute_mode
FNDA:22,_RNvNtCseLUTM0PnGP2_16kernel_companion6config20default_lsm_profiles
FNDA:3,_RNvNtCseLUTM0PnGP2_16kernel_companion6config20default_metrics_addr
FNDA:3,_RNvNtCseLUTM0PnGP2_16kernel_companion6config20default_weight_power
FNDA:3,_RNvNtCseLUTM0PnGP2_16kernel_companion6config21default_ebpf_fallback
FNDA:3,_RNvNtCseLUTM0PnGP2_16kernel_companion6config22default_audit_log_path
FNDA:3,_RNvNtCseLUTM0PnGP2_16kernel_companion6config22default_bcell_interval
FNDA:3,_RNvNtCseLUTM0PnGP2_16kernel_companion6config22default_deny_threshold
FNDA:3,_RNvNtCseLUTM0PnGP2_16kernel_companion6config22default_intent_bus_cap
FNDA:3,_RNvNtCseLUTM0PnGP2_16kernel_companion6config22default_kill_threshold
FNDA:3,_RNvNtCseLUTM0PnGP2_16kernel_companion6config22default_max_issue_rate
FNDA:3,_RNvNtCseLUTM0PnGP2_16kernel_companion6config22default_monitoring_cap
FNDA:3,_RNvNtCseLUTM0PnGP2_16kernel_companion6config22default_rate_threshold
FNDA:3,_RNvNtCseLUTM0PnGP2_16kernel_companion6config22default_tcell_interval
FNDA:3,_RNvNtCseLUTM0PnGP2_16kernel_companion6config22default_weight_latency
FNDA:3,_RNvNtCseLUTM0PnGP2_16kernel_companion6config26default_tracepoint_program
FNDA:3,_RNvNtCseLUTM0PnGP2_16kernel_companion6config27default_intent_bus_capacity
FNDA:3,_RNvNtCseLUTM0PnGP2_16kernel_companion6config27default_macrophage_interval
FNDA:3,_RNvNtCseLUTM0PnGP2_16kernel_companion6config27default_supervisor_interval
FNDA:3,_RNvXs0_NtCseLUTM0PnGP2_16kernel_companion6configNtB5_21KernelCompanionConfigNtNtCs13ARFDxRLcQ_4core7default7Default7default
FNDA:3,_RNvXs1_NtCseLUTM0PnGP2_16kernel_companion6configNtB5_20AgentSchedulerConfigNtNtCs13ARFDxRLcQ_4core7default7Default7default
FNDA:3,_RNvXs2_NtCseLUTM0PnGP2_16kernel_companion6configNtB5_19ContextMemoryConfigNtNtCs13ARFDxRLcQ_4core7default7Default7default
FNDA:3,_RNvXs3_NtCseLUTM0PnGP2_16kernel_companion6configNtB5_22ComputeSchedulerConfigNtNtCs13ARFDxRLcQ_4core7default7Default7default
FNDA:3,_RNvXs4_NtCseLUTM0PnGP2_16kernel_companion6configNtB5_24CapabilitySecurityConfigNtNtCs13ARFDxRLcQ_4core7default7Default7default
FNDA:3,_RNvXs5_NtCseLUTM0PnGP2_16kernel_companion6configNtB5_15IntentBusConfigNtNtCs13ARFDxRLcQ_4core7default7Default7default
FNDA:3,_RNvXs6_NtCseLUTM0PnGP2_16kernel_companion6configNtB5_18ImmuneSystemConfigNtNtCs13ARFDxRLcQ_4core7default7Default7default
FNDA:3,_RNvXs7_NtCseLUTM0PnGP2_16kernel_companion6configNtB5_10EbpfConfigNtNtCs13ARFDxRLcQ_4core7default7Default7default
FNDA:22,_RNvXs8_NtCseLUTM0PnGP2_16kernel_companion6configNtB5_9LsmConfigNtNtCs13ARFDxRLcQ_4core7default7Default7default
FNDA:3,_RNvXs_NtCseLUTM0PnGP2_16kernel_companion6configNtB4_13GeneralConfigNtNtCs13ARFDxRLcQ_4core7default7Default7default
FNDA:1,_RNCNvMs9_NtCseLUTM0PnGP2_16kernel_companion6configNtB7_9LsmConfig16allowed_syscalls0B9_
FNDA:88,_RNCNvNtCseLUTM0PnGP2_16kernel_companion6config20default_lsm_profiles0B5_
FNDA:1606,_RNCNvNtCseLUTM0PnGP2_16kernel_companion6config20default_lsm_profiless0_0B5_
FNDA:1430,_RNCNvNtCseLUTM0PnGP2_16kernel_companion6config20default_lsm_profiless_0B5_
FNDA:1,_RNvNtNtCseLUTM0PnGP2_16kernel_companion6config5testss_30default_lsm_profile_is_runtime
FNDA:1,_RNvNtNtCseLUTM0PnGP2_16kernel_companion6config5testss_36strict_profile_is_small_and_explicit
FNDA:1,_RNvNtNtCseLUTM0PnGP2_16kernel_companion6config5testss_48runtime_profile_contains_common_runtime_syscalls
FNF:62
FNH:54
DA:34,0
DA:35,0
DA:36,0
DA:37,0
DA:38,0
DA:40,0
DA:42,0
DA:43,0
DA:46,0
DA:47,0
DA:48,0
DA:49,0
DA:50,0
DA:52,0
DA:54,0
DA:55,0
DA:56,0
DA:57,0
DA:58,0
DA:59,0
DA:60,0
DA:61,0
DA:62,0
DA:63,0
DA:64,0
DA:66,0
DA:67,0
DA:68,0
DA:69,0
DA:70,0
DA:71,0
DA:72,0
DA:73,0
DA:75,0
DA:76,0
DA:77,0
DA:78,0
DA:79,0
DA:81,0
DA:82,0
DA:83,0
DA:84,0
DA:85,0
DA:86,0
DA:87,0
DA:88,0
DA:89,0
DA:90,0
DA:91,0
DA:92,0
DA:93,0
DA:94,0
DA:95,0
DA:96,0
DA:97,0
DA:98,0
DA:99,0
DA:100,0
DA:101,0
DA:102,0
DA:103,0
DA:104,0
DA:105,0
DA:106,0
DA:107,0
DA:108,0
DA:109,0
DA:110,0
DA:111,0
DA:112,0
DA:113,0
DA:114,0
DA:115,0
DA:116,0
DA:117,0
DA:118,0
DA:119,0
DA:120,0
DA:121,0
DA:122,0
DA:123,0
DA:124,0
DA:125,0
DA:126,0
DA:127,0
DA:128,0
DA:129,0
DA:130,0
DA:131,0
DA:132,0
DA:133,0
DA:134,0
DA:135,0
DA:136,0
DA:137,0
DA:138,0
DA:139,0
DA:140,0
DA:141,0
DA:142,0
DA:143,0
DA:144,0
DA:145,0
DA:146,0
DA:147,0
DA:148,0
DA:149,0
DA:150,0
DA:151,0
DA:161,3
DA:162,3
DA:163,3
DA:164,3
DA:165,3
DA:168,3
DA:169,3
DA:170,3
DA:185,3
DA:186,3
DA:187,3
DA:188,3
DA:189,3
DA:190,3
DA:191,3
DA:192,3
DA:195,3
DA:196,3
DA:197,3
DA:198,3
DA:199,3
DA:200,3
DA:201,3
DA:202,3
DA:203,3
DA:204,3
DA:205,3
DA:206,3
DA:221,3
DA:222,3
DA:223,3
DA:224,3
DA:225,3
DA:226,3
DA:227,3
DA:228,3
DA:231,3
DA:232,3
DA:233,3
DA:234,3
DA:235,3
DA:236,3
DA:237,3
DA:238,3
DA:239,3
DA:240,3
DA:241,3
DA:242,3
DA:255,3
DA:256,3
DA:257,3
DA:258,3
DA:259,3
DA:260,3
DA:261,3
DA:264,3
DA:265,3
DA:266,3
DA:267,3
DA:268,3
DA:269,3
DA:270,3
DA:271,3
DA:272,3
DA:289,3
DA:290,3
DA:291,3
DA:292,3
DA:293,3
DA:294,3
DA:295,3
DA:296,3
DA:297,3
DA:300,3
DA:301,3
DA:302,3
DA:303,3
DA:304,3
DA:305,3
DA:306,3
DA:307,3
DA:308,3
DA:309,3
DA:310,3
DA:311,3
DA:312,3
DA:313,3
DA:314,3
DA:325,3
DA:326,3
DA:327,3
DA:328,3
DA:329,3
DA:330,3
DA:333,3
DA:334,3
DA:335,3
DA:336,3
DA:337,3
DA:338,3
DA:347,3
DA:348,3
DA:349,3
DA:350,3
DA:351,3
DA:354,3
DA:355,3
DA:356,3
DA:379,3
DA:380,3
DA:381,3
DA:382,3
DA:383,3
DA:384,3
DA:385,3
DA:386,3
DA:387,3
DA:388,3
DA:389,3
DA:390,3
DA:393,3
DA:394,3
DA:395,3
DA:396,3
DA:397,3
DA:398,3
DA:399,3
DA:400,3
DA:401,3
DA:402,3
DA:403,3
DA:404,3
DA:405,3
DA:406,3
DA:407,3
DA:408,3
DA:409,3
DA:410,3
DA:411,3
DA:412,3
DA:413,3
DA:414,3
DA:415,3
DA:416,3
DA:427,3
DA:428,3
DA:429,3
DA:430,3
DA:431,3
DA:432,3
DA:435,3
DA:436,3
DA:437,3
DA:438,3
DA:439,3
DA:440,3
DA:457,26
DA:458,26
DA:459,26
DA:460,26
DA:461,26
DA:462,26
DA:468,1
DA:469,1
DA:470,1
DA:471,1
DA:472,1
DA:473,1
DA:477,24
DA:478,24
DA:479,24
DA:482,26
DA:483,26
DA:484,26
DA:486,26
DA:487,26
DA:488,26
DA:489,26
DA:491,104
DA:494,26
DA:495,26
DA:497,1690
DA:500,26
DA:501,26
DA:503,1898
DA:506,26
DA:507,26
DA:509,26
DA:510,26
DA:511,26
DA:513,26
DA:514,26
DA:515,26
DA:516,26
DA:517,26
DA:518,26
DA:519,26
DA:520,26
DA:521,26
DA:522,26
DA:523,26
DA:524,26
DA:525,26
DA:526,26
DA:527,26
DA:528,26
DA:529,26
DA:530,26
DA:531,26
DA:532,26
DA:533,26
DA:534,26
DA:535,26
DA:536,26
DA:537,26
DA:538,26
DA:539,26
DA:540,26
DA:541,26
DA:542,26
DA:543,26
DA:544,26
DA:545,26
DA:546,26
DA:547,26
DA:548,26
DA:549,26
DA:550,26
DA:551,26
DA:552,26
DA:553,26
DA:554,26
DA:555,26
DA:556,26
DA:557,26
DA:558,26
DA:559,26
DA:560,26
DA:561,26
DA:562,26
DA:563,26
DA:564,26
DA:565,26
DA:566,26
DA:567,26
DA:568,26
DA:569,26
DA:570,26
DA:571,26
DA:572,26
DA:573,26
DA:574,26
DA:575,26
DA:576,26
DA:577,26
DA:578,26
DA:579,26
DA:580,26
DA:581,26
DA:583,26
DA:584,26
DA:585,26
DA:586,26
DA:587,26
DA:588,26
DA:589,26
DA:590,26
DA:591,26
DA:592,26
DA:593,26
DA:594,26
DA:595,26
DA:596,26
DA:597,26
DA:598,26
DA:599,26
DA:600,26
DA:601,26
DA:602,26
DA:603,26
DA:604,26
DA:605,26
DA:606,26
DA:607,26
DA:608,26
DA:609,26
DA:610,26
DA:611,26
DA:612,26
DA:613,26
DA:614,26
DA:615,26
DA:616,26
DA:617,26
DA:618,26
DA:619,26
DA:620,26
DA:621,26
DA:622,26
DA:623,26
DA:624,26
DA:625,26
DA:626,26
DA:627,26
DA:628,26
DA:629,26
DA:630,26
DA:631,26
DA:632,26
DA:633,26
DA:634,26
DA:635,26
DA:636,26
DA:637,26
DA:638,26
DA:639,26
DA:640,26
DA:641,26
DA:642,26
DA:643,26
DA:644,26
DA:645,26
DA:646,26
DA:647,26
DA:648,26
DA:649,26
DA:650,26
DA:651,26
DA:652,26
DA:653,26
DA:654,26
DA:655,26
DA:656,26
DA:657,26
DA:658,26
DA:659,26
DA:666,1
DA:667,1
DA:668,1
DA:669,1
DA:670,1
DA:671,1
DA:672,1
DA:675,1
DA:676,1
DA:677,1
DA:678,1
DA:679,1
DA:680,1
DA:681,1
DA:682,1
DA:685,1
DA:688,1
DA:689,1
DA:690,1
DA:691,1
DA:692,1
BRF:0
BRH:0
LF:474
LH:361
end_of_record
SF:/home/lokis/Documents/AI-Native-Kernel/crates/kernel-companion/src/ebpf/mod.rs
FN:104,_RNCNCNCNvMNtCseVkF4WK7ytE_16kernel_companion4ebpfNtB8_13SyscallTracer11try_run_bpf000CsfbobxqkLRqr_12e2e_pipeline
FN:111,_RNCNCNCNvMNtCseVkF4WK7ytE_16kernel_companion4ebpfNtB8_13SyscallTracer11try_run_bpf00s0_0CsfbobxqkLRqr_12e2e_pipeline
FN:113,_RNCNCNCNvMNtCseVkF4WK7ytE_16kernel_companion4ebpfNtB8_13SyscallTracer11try_run_bpf00s1_0CsfbobxqkLRqr_12e2e_pipeline
FN:119,_RNCNCNCNvMNtCseVkF4WK7ytE_16kernel_companion4ebpfNtB8_13SyscallTracer11try_run_bpf00s2_0CsfbobxqkLRqr_12e2e_pipeline
FN:123,_RNCNCNCNvMNtCseVkF4WK7ytE_16kernel_companion4ebpfNtB8_13SyscallTracer11try_run_bpf00s3_0CsfbobxqkLRqr_12e2e_pipeline
FN:131,_RNCNCNCNvMNtCseVkF4WK7ytE_16kernel_companion4ebpfNtB8_13SyscallTracer11try_run_bpf00s4_0CsfbobxqkLRqr_12e2e_pipeline
FN:135,_RNCNCNCNvMNtCseVkF4WK7ytE_16kernel_companion4ebpfNtB8_13SyscallTracer11try_run_bpf00s5_0CsfbobxqkLRqr_12e2e_pipeline
FN:138,_RNCNCNCNvMNtCseVkF4WK7ytE_16kernel_companion4ebpfNtB8_13SyscallTracer11try_run_bpf00s6_0CsfbobxqkLRqr_12e2e_pipeline
FN:144,_RNCNCNCNvMNtCseVkF4WK7ytE_16kernel_companion4ebpfNtB8_13SyscallTracer11try_run_bpf00s7_0CsfbobxqkLRqr_12e2e_pipeline
FN:107,_RNCNCNCNvMNtCseVkF4WK7ytE_16kernel_companion4ebpfNtB8_13SyscallTracer11try_run_bpf00s_0CsfbobxqkLRqr_12e2e_pipeline
FN:101,_RNCNvMNtCseVkF4WK7ytE_16kernel_companion4ebpfNtB4_13SyscallTracer11try_run_bpf0CsfbobxqkLRqr_12e2e_pipeline
FN:186,_RNCNvMNtCseVkF4WK7ytE_16kernel_companion4ebpfNtB4_13SyscallTracer19run_simulation_loop0CsfbobxqkLRqr_12e2e_pipeline
FN:70,_RNCNvMNtCseVkF4WK7ytE_16kernel_companion4ebpfNtB4_13SyscallTracer3run0CsfbobxqkLRqr_12e2e_pipeline
FN:101,_RNvMNtCseVkF4WK7ytE_16kernel_companion4ebpfNtB2_13SyscallTracer11try_run_bpf
FN:186,_RNvMNtCseVkF4WK7ytE_16kernel_companion4ebpfNtB2_13SyscallTracer19run_simulation_loop
FN:221,_RNvMNtCseVkF4WK7ytE_16kernel_companion4ebpfNtB2_13SyscallTracer21process_syscall_event
FN:55,_RNvMNtCseVkF4WK7ytE_16kernel_companion4ebpfNtB2_13SyscallTracer3new
FN:66,_RNvMNtCseVkF4WK7ytE_16kernel_companion4ebpfNtB2_13SyscallTracer3run
FN:299,_RNvNtCseVkF4WK7ytE_16kernel_companion4ebpf10load_bpf_o
FN:278,_RNvNtCseVkF4WK7ytE_16kernel_companion4ebpf15parse_raw_event
FN:366,_RNvNtCseVkF4WK7ytE_16kernel_companion4ebpf19build_syscall_table
FN:332,_RNvNtCseVkF4WK7ytE_16kernel_companion4ebpf22load_bpf_program_bytes
FN:104,_RNCNCNCNvMNtCseVkF4WK7ytE_16kernel_companion4ebpfNtB8_13SyscallTracer11try_run_bpf000Ba_
FN:111,_RNCNCNCNvMNtCseVkF4WK7ytE_16kernel_companion4ebpfNtB8_13SyscallTracer11try_run_bpf00s0_0Ba_
FN:113,_RNCNCNCNvMNtCseVkF4WK7ytE_16kernel_companion4ebpfNtB8_13SyscallTracer11try_run_bpf00s1_0Ba_
FN:119,_RNCNCNCNvMNtCseVkF4WK7ytE_16kernel_companion4ebpfNtB8_13SyscallTracer11try_run_bpf00s2_0Ba_
FN:123,_RNCNCNCNvMNtCseVkF4WK7ytE_16kernel_companion4ebpfNtB8_13SyscallTracer11try_run_bpf00s3_0Ba_
FN:131,_RNCNCNCNvMNtCseVkF4WK7ytE_16kernel_companion4ebpfNtB8_13SyscallTracer11try_run_bpf00s4_0Ba_
FN:135,_RNCNCNCNvMNtCseVkF4WK7ytE_16kernel_companion4ebpfNtB8_13SyscallTracer11try_run_bpf00s5_0Ba_
FN:138,_RNCNCNCNvMNtCseVkF4WK7ytE_16kernel_companion4ebpfNtB8_13SyscallTracer11try_run_bpf00s6_0Ba_
FN:144,_RNCNCNCNvMNtCseVkF4WK7ytE_16kernel_companion4ebpfNtB8_13SyscallTracer11try_run_bpf00s7_0Ba_
FN:107,_RNCNCNCNvMNtCseVkF4WK7ytE_16kernel_companion4ebpfNtB8_13SyscallTracer11try_run_bpf00s_0Ba_
FN:101,_RNCNvMNtCseVkF4WK7ytE_16kernel_companion4ebpfNtB4_13SyscallTracer11try_run_bpf0B6_
FN:186,_RNCNvMNtCseVkF4WK7ytE_16kernel_companion4ebpfNtB4_13SyscallTracer19run_simulation_loop0B6_
FN:70,_RNCNvMNtCseVkF4WK7ytE_16kernel_companion4ebpfNtB4_13SyscallTracer3run0B6_
FN:356,_RNvMNtNtCseVkF4WK7ytE_16kernel_companion4ebpf17tokio_util_cancelNtB2_17CancellationToken12is_cancelled
FN:346,_RNvMNtNtCseVkF4WK7ytE_16kernel_companion4ebpf17tokio_util_cancelNtB2_17CancellationToken3new
FN:350,_RNvMNtNtCseVkF4WK7ytE_16kernel_companion4ebpf17tokio_util_cancelNtB2_17CancellationToken6cancel
FN:312,_RNCNCNvNtCseVkF4WK7ytE_16kernel_companion4ebpf10load_bpf_o00B7_
FN:252,_RNCNvMNtCseVkF4WK7ytE_16kernel_companion4ebpfNtB4_13SyscallTracer21process_syscall_event0B6_
FN:312,_RNCNvNtCseVkF4WK7ytE_16kernel_companion4ebpf10load_bpf_o0B5_
FN:525,_RNvNtNtCseLUTM0PnGP2_16kernel_companion4ebpf5tests11make_tracer
FN:554,_RNvNtNtCseLUTM0PnGP2_16kernel_companion4ebpf5testss_25unknown_syscall_is_denied
FN:530,_RNvNtNtCseLUTM0PnGP2_16kernel_companion4ebpf5testss_31process_read_syscall_is_allowed
FN:546,_RNvNtNtCseLUTM0PnGP2_16kernel_companion4ebpf5testss_32process_execve_syscall_is_denied
FN:538,_RNvNtNtCseLUTM0PnGP2_16kernel_companion4ebpf5testss_32process_write_syscall_is_allowed
FN:562,_RNvNtNtCseLUTM0PnGP2_16kernel_companion4ebpf5testss_34syscall_event_contains_pid_and_uid
FN:588,_RNvNtNtCseLUTM0PnGP2_16kernel_companion4ebpf5testss_36syscall_table_covers_common_syscalls
FN:570,_RNvNtNtCseLUTM0PnGP2_16kernel_companion4ebpf5testss_39simulation_loop_sends_events_to_channel
FN:598,_RNvNtNtCseLUTM0PnGP2_16kernel_companion4ebpf5testss_48tracer_falls_back_to_simulation_when_bpf_missing
FN:101,_RNvMNtCseLUTM0PnGP2_16kernel_companion4ebpfNtB2_13SyscallTracer11try_run_bpf
FN:186,_RNvMNtCseLUTM0PnGP2_16kernel_companion4ebpfNtB2_13SyscallTracer19run_simulation_loop
FN:221,_RNvMNtCseLUTM0PnGP2_16kernel_companion4ebpfNtB2_13SyscallTracer21process_syscall_event
FN:55,_RNvMNtCseLUTM0PnGP2_16kernel_companion4ebpfNtB2_13SyscallTracer3new
FN:66,_RNvMNtCseLUTM0PnGP2_16kernel_companion4ebpfNtB2_13SyscallTracer3run
FN:299,_RNvNtCseLUTM0PnGP2_16kernel_companion4ebpf10load_bpf_o
FN:278,_RNvNtCseLUTM0PnGP2_16kernel_companion4ebpf15parse_raw_event
FN:366,_RNvNtCseLUTM0PnGP2_16kernel_companion4ebpf19build_syscall_table
FN:332,_RNvNtCseLUTM0PnGP2_16kernel_companion4ebpf22load_bpf_program_bytes
FN:104,_RNCNCNCNvMNtCseLUTM0PnGP2_16kernel_companion4ebpfNtB8_13SyscallTracer11try_run_bpf000Ba_
FN:111,_RNCNCNCNvMNtCseLUTM0PnGP2_16kernel_companion4ebpfNtB8_13SyscallTracer11try_run_bpf00s0_0Ba_
FN:113,_RNCNCNCNvMNtCseLUTM0PnGP2_16kernel_companion4ebpfNtB8_13SyscallTracer11try_run_bpf00s1_0Ba_
FN:119,_RNCNCNCNvMNtCseLUTM0PnGP2_16kernel_companion4ebpfNtB8_13SyscallTracer11try_run_bpf00s2_0Ba_
FN:123,_RNCNCNCNvMNtCseLUTM0PnGP2_16kernel_companion4ebpfNtB8_13SyscallTracer11try_run_bpf00s3_0Ba_
FN:131,_RNCNCNCNvMNtCseLUTM0PnGP2_16kernel_companion4ebpfNtB8_13SyscallTracer11try_run_bpf00s4_0Ba_
FN:135,_RNCNCNCNvMNtCseLUTM0PnGP2_16kernel_companion4ebpfNtB8_13SyscallTracer11try_run_bpf00s5_0Ba_
FN:138,_RNCNCNCNvMNtCseLUTM0PnGP2_16kernel_companion4ebpfNtB8_13SyscallTracer11try_run_bpf00s6_0Ba_
FN:144,_RNCNCNCNvMNtCseLUTM0PnGP2_16kernel_companion4ebpfNtB8_13SyscallTracer11try_run_bpf00s7_0Ba_
FN:107,_RNCNCNCNvMNtCseLUTM0PnGP2_16kernel_companion4ebpfNtB8_13SyscallTracer11try_run_bpf00s_0Ba_
FN:312,_RNCNCNvNtCseLUTM0PnGP2_16kernel_companion4ebpf10load_bpf_o00B7_
FN:101,_RNCNvMNtCseLUTM0PnGP2_16kernel_companion4ebpfNtB4_13SyscallTracer11try_run_bpf0B6_
FN:186,_RNCNvMNtCseLUTM0PnGP2_16kernel_companion4ebpfNtB4_13SyscallTracer19run_simulation_loop0B6_
FN:252,_RNCNvMNtCseLUTM0PnGP2_16kernel_companion4ebpfNtB4_13SyscallTracer21process_syscall_event0B6_
FN:70,_RNCNvMNtCseLUTM0PnGP2_16kernel_companion4ebpfNtB4_13SyscallTracer3run0B6_
FN:312,_RNCNvNtCseLUTM0PnGP2_16kernel_companion4ebpf10load_bpf_o0B5_
FN:574,_RNCNCNvNtNtCseLUTM0PnGP2_16kernel_companion4ebpf5testss_39simulation_loop_sends_events_to_channel00B9_
FN:604,_RNCNCNvNtNtCseLUTM0PnGP2_16kernel_companion4ebpf5testss_48tracer_falls_back_to_simulation_when_bpf_missing00B9_
FN:570,_RNCNvNtNtCseLUTM0PnGP2_16kernel_companion4ebpf5testss_39simulation_loop_sends_events_to_channel0B7_
FN:603,_RNCNvNtNtCseLUTM0PnGP2_16kernel_companion4ebpf5testss_48tracer_falls_back_to_simulation_when_bpf_missing0B7_
FN:356,_RNvMNtNtCseLUTM0PnGP2_16kernel_companion4ebpf17tokio_util_cancelNtB2_17CancellationToken12is_cancelled
FN:346,_RNvMNtNtCseLUTM0PnGP2_16kernel_companion4ebpf17tokio_util_cancelNtB2_17CancellationToken3new
FN:350,_RNvMNtNtCseLUTM0PnGP2_16kernel_companion4ebpf17tokio_util_cancelNtB2_17CancellationToken6cancel
FN:104,_RNCNCNCNvMNtCseVkF4WK7ytE_16kernel_companion4ebpfNtB8_13SyscallTracer11try_run_bpf000CshG9qMLwq2HM_16kernel_companion
FN:111,_RNCNCNCNvMNtCseVkF4WK7ytE_16kernel_companion4ebpfNtB8_13SyscallTracer11try_run_bpf00s0_0CshG9qMLwq2HM_16kernel_companion
FN:113,_RNCNCNCNvMNtCseVkF4WK7ytE_16kernel_companion4ebpfNtB8_13SyscallTracer11try_run_bpf00s1_0CshG9qMLwq2HM_16kernel_companion
FN:119,_RNCNCNCNvMNtCseVkF4WK7ytE_16kernel_companion4ebpfNtB8_13SyscallTracer11try_run_bpf00s2_0CshG9qMLwq2HM_16kernel_companion
FN:123,_RNCNCNCNvMNtCseVkF4WK7ytE_16kernel_companion4ebpfNtB8_13SyscallTracer11try_run_bpf00s3_0CshG9qMLwq2HM_16kernel_companion
FN:131,_RNCNCNCNvMNtCseVkF4WK7ytE_16kernel_companion4ebpfNtB8_13SyscallTracer11try_run_bpf00s4_0CshG9qMLwq2HM_16kernel_companion
FN:135,_RNCNCNCNvMNtCseVkF4WK7ytE_16kernel_companion4ebpfNtB8_13SyscallTracer11try_run_bpf00s5_0CshG9qMLwq2HM_16kernel_companion
FN:138,_RNCNCNCNvMNtCseVkF4WK7ytE_16kernel_companion4ebpfNtB8_13SyscallTracer11try_run_bpf00s6_0CshG9qMLwq2HM_16kernel_companion
FN:144,_RNCNCNCNvMNtCseVkF4WK7ytE_16kernel_companion4ebpfNtB8_13SyscallTracer11try_run_bpf00s7_0CshG9qMLwq2HM_16kernel_companion
FN:107,_RNCNCNCNvMNtCseVkF4WK7ytE_16kernel_companion4ebpfNtB8_13SyscallTracer11try_run_bpf00s_0CshG9qMLwq2HM_16kernel_companion
FN:101,_RNCNvMNtCseVkF4WK7ytE_16kernel_companion4ebpfNtB4_13SyscallTracer11try_run_bpf0CshG9qMLwq2HM_16kernel_companion
FN:186,_RNCNvMNtCseVkF4WK7ytE_16kernel_companion4ebpfNtB4_13SyscallTracer19run_simulation_loop0CshG9qMLwq2HM_16kernel_companion
FN:70,_RNCNvMNtCseVkF4WK7ytE_16kernel_companion4ebpfNtB4_13SyscallTracer3run0CshG9qMLwq2HM_16kernel_companion
FNDA:0,_RNCNCNCNvMNtCseVkF4WK7ytE_16kernel_companion4ebpfNtB8_13SyscallTracer11try_run_bpf000CsfbobxqkLRqr_12e2e_pipeline
FNDA:0,_RNCNCNCNvMNtCseVkF4WK7ytE_16kernel_companion4ebpfNtB8_13SyscallTracer11try_run_bpf00s0_0CsfbobxqkLRqr_12e2e_pipeline
FNDA:0,_RNCNCNCNvMNtCseVkF4WK7ytE_16kernel_companion4ebpfNtB8_13SyscallTracer11try_run_bpf00s1_0CsfbobxqkLRqr_12e2e_pipeline
FNDA:0,_RNCNCNCNvMNtCseVkF4WK7ytE_16kernel_companion4ebpfNtB8_13SyscallTracer11try_run_bpf00s2_0CsfbobxqkLRqr_12e2e_pipeline
FNDA:0,_RNCNCNCNvMNtCseVkF4WK7ytE_16kernel_companion4ebpfNtB8_13SyscallTracer11try_run_bpf00s3_0CsfbobxqkLRqr_12e2e_pipeline
FNDA:0,_RNCNCNCNvMNtCseVkF4WK7ytE_16kernel_companion4ebpfNtB8_13SyscallTracer11try_run_bpf00s4_0CsfbobxqkLRqr_12e2e_pipeline
FNDA:0,_RNCNCNCNvMNtCseVkF4WK7ytE_16kernel_companion4ebpfNtB8_13SyscallTracer11try_run_bpf00s5_0CsfbobxqkLRqr_12e2e_pipeline
FNDA:0,_RNCNCNCNvMNtCseVkF4WK7ytE_16kernel_companion4ebpfNtB8_13SyscallTracer11try_run_bpf00s6_0CsfbobxqkLRqr_12e2e_pipeline
FNDA:0,_RNCNCNCNvMNtCseVkF4WK7ytE_16kernel_companion4ebpfNtB8_13SyscallTracer11try_run_bpf00s7_0CsfbobxqkLRqr_12e2e_pipeline
FNDA:3,_RNCNCNCNvMNtCseVkF4WK7ytE_16kernel_companion4ebpfNtB8_13SyscallTracer11try_run_bpf00s_0CsfbobxqkLRqr_12e2e_pipeline
FNDA:3,_RNCNvMNtCseVkF4WK7ytE_16kernel_companion4ebpfNtB4_13SyscallTracer11try_run_bpf0CsfbobxqkLRqr_12e2e_pipeline
FNDA:3,_RNCNvMNtCseVkF4WK7ytE_16kernel_companion4ebpfNtB4_13SyscallTracer19run_simulation_loop0CsfbobxqkLRqr_12e2e_pipeline
FNDA:3,_RNCNvMNtCseVkF4WK7ytE_16kernel_companion4ebpfNtB4_13SyscallTracer3run0CsfbobxqkLRqr_12e2e_pipeline
FNDA:3,_RNvMNtCseVkF4WK7ytE_16kernel_companion4ebpfNtB2_13SyscallTracer11try_run_bpf
FNDA:3,_RNvMNtCseVkF4WK7ytE_16kernel_companion4ebpfNtB2_13SyscallTracer19run_simulation_loop
FNDA:10012,_RNvMNtCseVkF4WK7ytE_16kernel_companion4ebpfNtB2_13SyscallTracer21process_syscall_event
FNDA:10003,_RNvMNtCseVkF4WK7ytE_16kernel_companion4ebpfNtB2_13SyscallTracer3new
FNDA:3,_RNvMNtCseVkF4WK7ytE_16kernel_companion4ebpfNtB2_13SyscallTracer3run
FNDA:3,_RNvNtCseVkF4WK7ytE_16kernel_companion4ebpf10load_bpf_o
FNDA:0,_RNvNtCseVkF4WK7ytE_16kernel_companion4ebpf15parse_raw_event
FNDA:10003,_RNvNtCseVkF4WK7ytE_16kernel_companion4ebpf19build_syscall_table
FNDA:3,_RNvNtCseVkF4WK7ytE_16kernel_companion4ebpf22load_bpf_program_bytes
FNDA:0,_RNCNCNCNvMNtCseVkF4WK7ytE_16kernel_companion4ebpfNtB8_13SyscallTracer11try_run_bpf000Ba_
FNDA:0,_RNCNCNCNvMNtCseVkF4WK7ytE_16kernel_companion4ebpfNtB8_13SyscallTracer11try_run_bpf00s0_0Ba_
FNDA:0,_RNCNCNCNvMNtCseVkF4WK7ytE_16kernel_companion4ebpfNtB8_13SyscallTracer11try_run_bpf00s1_0Ba_
FNDA:0,_RNCNCNCNvMNtCseVkF4WK7ytE_16kernel_companion4ebpfNtB8_13SyscallTracer11try_run_bpf00s2_0Ba_
FNDA:0,_RNCNCNCNvMNtCseVkF4WK7ytE_16kernel_companion4ebpfNtB8_13SyscallTracer11try_run_bpf00s3_0Ba_
FNDA:0,_RNCNCNCNvMNtCseVkF4WK7ytE_16kernel_companion4ebpfNtB8_13SyscallTracer11try_run_bpf00s4_0Ba_
FNDA:0,_RNCNCNCNvMNtCseVkF4WK7ytE_16kernel_companion4ebpfNtB8_13SyscallTracer11try_run_bpf00s5_0Ba_
FNDA:0,_RNCNCNCNvMNtCseVkF4WK7ytE_16kernel_companion4ebpfNtB8_13SyscallTracer11try_run_bpf00s6_0Ba_
FNDA:0,_RNCNCNCNvMNtCseVkF4WK7ytE_16kernel_companion4ebpfNtB8_13SyscallTracer11try_run_bpf00s7_0Ba_
FNDA:0,_RNCNCNCNvMNtCseVkF4WK7ytE_16kernel_companion4ebpfNtB8_13SyscallTracer11try_run_bpf00s_0Ba_
FNDA:0,_RNCNvMNtCseVkF4WK7ytE_16kernel_companion4ebpfNtB4_13SyscallTracer11try_run_bpf0B6_
FNDA:0,_RNCNvMNtCseVkF4WK7ytE_16kernel_companion4ebpfNtB4_13SyscallTracer19run_simulation_loop0B6_
FNDA:0,_RNCNvMNtCseVkF4WK7ytE_16kernel_companion4ebpfNtB4_13SyscallTracer3run0B6_
FNDA:12,_RNvMNtNtCseVkF4WK7ytE_16kernel_companion4ebpf17tokio_util_cancelNtB2_17CancellationToken12is_cancelled
FNDA:3,_RNvMNtNtCseVkF4WK7ytE_16kernel_companion4ebpf17tokio_util_cancelNtB2_17CancellationToken3new
FNDA:0,_RNvMNtNtCseVkF4WK7ytE_16kernel_companion4ebpf17tokio_util_cancelNtB2_17CancellationToken6cancel
FNDA:0,_RNCNCNvNtCseVkF4WK7ytE_16kernel_companion4ebpf10load_bpf_o00B7_
FNDA:10012,_RNCNvMNtCseVkF4WK7ytE_16kernel_companion4ebpfNtB4_13SyscallTracer21process_syscall_event0B6_
FNDA:0,_RNCNvNtCseVkF4WK7ytE_16kernel_companion4ebpf10load_bpf_o0B5_
FNDA:7,_RNvNtNtCseLUTM0PnGP2_16kernel_companion4ebpf5tests11make_tracer
FNDA:1,_RNvNtNtCseLUTM0PnGP2_16kernel_companion4ebpf5testss_25unknown_syscall_is_denied
FNDA:1,_RNvNtNtCseLUTM0PnGP2_16kernel_companion4ebpf5testss_31process_read_syscall_is_allowed
FNDA:1,_RNvNtNtCseLUTM0PnGP2_16kernel_companion4ebpf5testss_32process_execve_syscall_is_denied
FNDA:1,_RNvNtNtCseLUTM0PnGP2_16kernel_companion4ebpf5testss_32process_write_syscall_is_allowed
FNDA:1,_RNvNtNtCseLUTM0PnGP2_16kernel_companion4ebpf5testss_34syscall_event_contains_pid_and_uid
FNDA:1,_RNvNtNtCseLUTM0PnGP2_16kernel_companion4ebpf5testss_36syscall_table_covers_common_syscalls
FNDA:1,_RNvNtNtCseLUTM0PnGP2_16kernel_companion4ebpf5testss_39simulation_loop_sends_events_to_channel
FNDA:1,_RNvNtNtCseLUTM0PnGP2_16kernel_companion4ebpf5testss_48tracer_falls_back_to_simulation_when_bpf_missing
FNDA:4,_RNvMNtCseLUTM0PnGP2_16kernel_companion4ebpfNtB2_13SyscallTracer11try_run_bpf
FNDA:4,_RNvMNtCseLUTM0PnGP2_16kernel_companion4ebpfNtB2_13SyscallTracer19run_simulation_loop
FNDA:21,_RNvMNtCseLUTM0PnGP2_16kernel_companion4ebpfNtB2_13SyscallTracer21process_syscall_event
FNDA:9,_RNvMNtCseLUTM0PnGP2_16kernel_companion4ebpfNtB2_13SyscallTracer3new
FNDA:4,_RNvMNtCseLUTM0PnGP2_16kernel_companion4ebpfNtB2_13SyscallTracer3run
FNDA:6,_RNvNtCseLUTM0PnGP2_16kernel_companion4ebpf10load_bpf_o
FNDA:0,_RNvNtCseLUTM0PnGP2_16kernel_companion4ebpf15parse_raw_event
FNDA:10,_RNvNtCseLUTM0PnGP2_16kernel_companion4ebpf19build_syscall_table
FNDA:4,_RNvNtCseLUTM0PnGP2_16kernel_companion4ebpf22load_bpf_program_bytes
FNDA:0,_RNCNCNCNvMNtCseLUTM0PnGP2_16kernel_companion4ebpfNtB8_13SyscallTracer11try_run_bpf000Ba_
FNDA:0,_RNCNCNCNvMNtCseLUTM0PnGP2_16kernel_companion4ebpfNtB8_13SyscallTracer11try_run_bpf00s0_0Ba_
FNDA:0,_RNCNCNCNvMNtCseLUTM0PnGP2_16kernel_companion4ebpfNtB8_13SyscallTracer11try_run_bpf00s1_0Ba_
FNDA:0,_RNCNCNCNvMNtCseLUTM0PnGP2_16kernel_companion4ebpfNtB8_13SyscallTracer11try_run_bpf00s2_0Ba_
FNDA:0,_RNCNCNCNvMNtCseLUTM0PnGP2_16kernel_companion4ebpfNtB8_13SyscallTracer11try_run_bpf00s3_0Ba_
FNDA:0,_RNCNCNCNvMNtCseLUTM0PnGP2_16kernel_companion4ebpfNtB8_13SyscallTracer11try_run_bpf00s4_0Ba_
FNDA:0,_RNCNCNCNvMNtCseLUTM0PnGP2_16kernel_companion4ebpfNtB8_13SyscallTracer11try_run_bpf00s5_0Ba_
FNDA:0,_RNCNCNCNvMNtCseLUTM0PnGP2_16kernel_companion4ebpfNtB8_13SyscallTracer11try_run_bpf00s6_0Ba_
FNDA:0,_RNCNCNCNvMNtCseLUTM0PnGP2_16kernel_companion4ebpfNtB8_13SyscallTracer11try_run_bpf00s7_0Ba_
FNDA:4,_RNCNCNCNvMNtCseLUTM0PnGP2_16kernel_companion4ebpfNtB8_13SyscallTracer11try_run_bpf00s_0Ba_
FNDA:0,_RNCNCNvNtCseLUTM0PnGP2_16kernel_companion4ebpf10load_bpf_o00B7_
FNDA:4,_RNCNvMNtCseLUTM0PnGP2_16kernel_companion4ebpfNtB4_13SyscallTracer11try_run_bpf0B6_
FNDA:4,_RNCNvMNtCseLUTM0PnGP2_16kernel_companion4ebpfNtB4_13SyscallTracer19run_simulation_loop0B6_
FNDA:21,_RNCNvMNtCseLUTM0PnGP2_16kernel_companion4ebpfNtB4_13SyscallTracer21process_syscall_event0B6_
FNDA:4,_RNCNvMNtCseLUTM0PnGP2_16kernel_companion4ebpfNtB4_13SyscallTracer3run0B6_
FNDA:0,_RNCNvNtCseLUTM0PnGP2_16kernel_companion4ebpf10load_bpf_o0B5_
FNDA:1,_RNCNCNvNtNtCseLUTM0PnGP2_16kernel_companion4ebpf5testss_39simulation_loop_sends_events_to_channel00B9_
FNDA:1,_RNCNCNvNtNtCseLUTM0PnGP2_16kernel_companion4ebpf5testss_48tracer_falls_back_to_simulation_when_bpf_missing00B9_
FNDA:1,_RNCNvNtNtCseLUTM0PnGP2_16kernel_companion4ebpf5testss_39simulation_loop_sends_events_to_channel0B7_
FNDA:1,_RNCNvNtNtCseLUTM0PnGP2_16kernel_companion4ebpf5testss_48tracer_falls_back_to_simulation_when_bpf_missing0B7_
FNDA:68,_RNvMNtNtCseLUTM0PnGP2_16kernel_companion4ebpf17tokio_util_cancelNtB2_17CancellationToken12is_cancelled
FNDA:17,_RNvMNtNtCseLUTM0PnGP2_16kernel_companion4ebpf17tokio_util_cancelNtB2_17CancellationToken3new
FNDA:13,_RNvMNtNtCseLUTM0PnGP2_16kernel_companion4ebpf17tokio_util_cancelNtB2_17CancellationToken6cancel
FNDA:0,_RNCNCNCNvMNtCseVkF4WK7ytE_16kernel_companion4ebpfNtB8_13SyscallTracer11try_run_bpf000CshG9qMLwq2HM_16kernel_companion
FNDA:0,_RNCNCNCNvMNtCseVkF4WK7ytE_16kernel_companion4ebpfNtB8_13SyscallTracer11try_run_bpf00s0_0CshG9qMLwq2HM_16kernel_companion
FNDA:0,_RNCNCNCNvMNtCseVkF4WK7ytE_16kernel_companion4ebpfNtB8_13SyscallTracer11try_run_bpf00s1_0CshG9qMLwq2HM_16kernel_companion
FNDA:0,_RNCNCNCNvMNtCseVkF4WK7ytE_16kernel_companion4ebpfNtB8_13SyscallTracer11try_run_bpf00s2_0CshG9qMLwq2HM_16kernel_companion
FNDA:0,_RNCNCNCNvMNtCseVkF4WK7ytE_16kernel_companion4ebpfNtB8_13SyscallTracer11try_run_bpf00s3_0CshG9qMLwq2HM_16kernel_companion
FNDA:0,_RNCNCNCNvMNtCseVkF4WK7ytE_16kernel_companion4ebpfNtB8_13SyscallTracer11try_run_bpf00s4_0CshG9qMLwq2HM_16kernel_companion
FNDA:0,_RNCNCNCNvMNtCseVkF4WK7ytE_16kernel_companion4ebpfNtB8_13SyscallTracer11try_run_bpf00s5_0CshG9qMLwq2HM_16kernel_companion
FNDA:0,_RNCNCNCNvMNtCseVkF4WK7ytE_16kernel_companion4ebpfNtB8_13SyscallTracer11try_run_bpf00s6_0CshG9qMLwq2HM_16kernel_companion
FNDA:0,_RNCNCNCNvMNtCseVkF4WK7ytE_16kernel_companion4ebpfNtB8_13SyscallTracer11try_run_bpf00s7_0CshG9qMLwq2HM_16kernel_companion
FNDA:0,_RNCNCNCNvMNtCseVkF4WK7ytE_16kernel_companion4ebpfNtB8_13SyscallTracer11try_run_bpf00s_0CshG9qMLwq2HM_16kernel_companion
FNDA:0,_RNCNvMNtCseVkF4WK7ytE_16kernel_companion4ebpfNtB4_13SyscallTracer11try_run_bpf0CshG9qMLwq2HM_16kernel_companion
FNDA:0,_RNCNvMNtCseVkF4WK7ytE_16kernel_companion4ebpfNtB4_13SyscallTracer19run_simulation_loop0CshG9qMLwq2HM_16kernel_companion
FNDA:0,_RNCNvMNtCseVkF4WK7ytE_16kernel_companion4ebpfNtB4_13SyscallTracer3run0CshG9qMLwq2HM_16kernel_companion
FNF:41
FNH:29
DA:55,10012
DA:56,10012
DA:57,10012
DA:58,10012
DA:59,10012
DA:60,10012
DA:61,10012
DA:62,10012
DA:63,10012
DA:66,7
DA:67,7
DA:68,7
DA:69,7
DA:70,7
DA:98,7
DA:101,7
DA:104,0
DA:107,7
DA:111,0
DA:113,0
DA:114,0
DA:115,0
DA:119,0
DA:123,0
DA:131,0
DA:135,0
DA:138,0
DA:144,0
DA:183,7
DA:186,7
DA:218,7
DA:221,10033
DA:222,10033
DA:223,10033
DA:224,10033
DA:225,10033
DA:226,10033
DA:227,10033
DA:229,10033
DA:230,10033
DA:232,10017
DA:233,10017
DA:236,16
DA:237,16
DA:241,16
DA:246,10033
DA:247,10033
DA:248,10033
DA:249,10033
DA:250,10033
DA:251,10033
DA:252,10033
DA:253,10033
DA:254,10033
DA:256,10033
DA:278,0
DA:279,0
DA:280,0
DA:281,0
DA:282,0
DA:283,0
DA:284,0
DA:285,0
DA:286,0
DA:287,0
DA:288,0
DA:289,0
DA:290,0
DA:291,0
DA:292,0
DA:293,0
DA:299,9
DA:300,9
DA:301,9
DA:302,9
DA:303,0
DA:304,0
DA:305,0
DA:306,0
DA:307,0
DA:310,0
DA:311,0
DA:312,0
DA:313,0
DA:314,0
DA:315,0
DA:316,0
DA:317,0
DA:318,0
DA:324,9
DA:325,0
DA:326,9
DA:328,9
DA:329,9
DA:332,7
DA:333,7
DA:334,7
DA:346,20
DA:347,20
DA:348,20
DA:350,13
DA:351,13
DA:352,13
DA:353,13
DA:356,80
DA:357,80
DA:358,80
DA:366,10013
DA:367,10013
DA:368,10013
DA:369,10013
DA:370,10013
DA:371,10013
DA:372,10013
DA:373,10013
DA:374,10013
DA:375,10013
DA:376,10013
DA:377,10013
DA:378,10013
DA:379,10013
DA:380,10013
DA:381,10013
DA:382,10013
DA:383,10013
DA:384,10013
DA:385,10013
DA:386,10013
DA:387,10013
DA:388,10013
DA:389,10013
DA:390,10013
DA:391,10013
DA:392,10013
DA:393,10013
DA:394,10013
DA:395,10013
DA:396,10013
DA:397,10013
DA:398,10013
DA:399,10013
DA:400,10013
DA:401,10013
DA:402,10013
DA:403,10013
DA:404,10013
DA:405,10013
DA:406,10013
DA:407,10013
DA:408,10013
DA:409,10013
DA:410,10013
DA:411,10013
DA:412,10013
DA:413,10013
DA:414,10013
DA:415,10013
DA:416,10013
DA:417,10013
DA:418,10013
DA:419,10013
DA:420,10013
DA:421,10013
DA:422,10013
DA:423,10013
DA:424,10013
DA:425,10013
DA:426,10013
DA:427,10013
DA:428,10013
DA:429,10013
DA:430,10013
DA:431,10013
DA:432,10013
DA:433,10013
DA:434,10013
DA:435,10013
DA:436,10013
DA:437,10013
DA:438,10013
DA:439,10013
DA:440,10013
DA:441,10013
DA:442,10013
DA:443,10013
DA:444,10013
DA:445,10013
DA:446,10013
DA:447,10013
DA:448,10013
DA:449,10013
DA:450,10013
DA:451,10013
DA:452,10013
DA:453,10013
DA:454,10013
DA:455,10013
DA:456,10013
DA:457,10013
DA:458,10013
DA:459,10013
DA:460,10013
DA:461,10013
DA:462,10013
DA:463,10013
DA:464,10013
DA:465,10013
DA:466,10013
DA:467,10013
DA:468,10013
DA:469,10013
DA:470,10013
DA:471,10013
DA:472,10013
DA:473,10013
DA:474,10013
DA:475,10013
DA:476,10013
DA:477,10013
DA:478,10013
DA:479,10013
DA:480,10013
DA:481,10013
DA:482,10013
DA:483,10013
DA:484,10013
DA:485,10013
DA:486,10013
DA:487,10013
DA:488,10013
DA:489,10013
DA:490,10013
DA:491,10013
DA:492,10013
DA:493,10013
DA:494,10013
DA:495,10013
DA:496,10013
DA:497,10013
DA:498,10013
DA:499,10013
DA:500,10013
DA:501,10013
DA:502,10013
DA:503,10013
DA:504,10013
DA:505,10013
DA:506,10013
DA:507,10013
DA:508,10013
DA:509,10013
DA:510,10013
DA:511,10013
DA:512,10013
DA:513,10013
DA:514,10013
DA:515,10013
DA:516,10013
DA:517,10013
DA:525,7
DA:526,7
DA:527,7
DA:530,1
DA:531,1
DA:532,1
DA:533,1
DA:534,1
DA:535,1
DA:538,1
DA:539,1
DA:540,1
DA:541,1
DA:542,1
DA:543,1
DA:546,1
DA:547,1
DA:548,1
DA:549,1
DA:550,1
DA:551,1
DA:554,1
DA:555,1
DA:556,1
DA:557,1
DA:558,1
DA:559,1
DA:562,1
DA:563,1
DA:564,1
DA:565,1
DA:566,1
DA:567,1
DA:570,1
DA:571,1
DA:572,1
DA:574,1
DA:575,1
DA:576,1
DA:578,1
DA:579,1
DA:580,1
DA:581,1
DA:583,1
DA:584,1
DA:585,1
DA:588,1
DA:589,1
DA:590,1
DA:591,1
DA:592,1
DA:593,1
DA:594,1
DA:595,1
DA:598,1
DA:599,1
DA:600,1
DA:602,1
DA:603,1
DA:604,1
DA:605,1
DA:606,1
DA:608,1
DA:609,1
DA:610,1
DA:611,1
DA:613,1
DA:614,1
DA:615,1
DA:616,1
BRF:0
BRH:0
LF:340
LH:296
end_of_record
SF:/home/lokis/Documents/AI-Native-Kernel/crates/kernel-companion/src/lib.rs
FN:315,_RNCNCNCNCNvMCseVkF4WK7ytE_16kernel_companionNtBa_15KernelCompanion4boot00s2_0s0_0Ba_
FN:316,_RNCNCNCNCNvMCseVkF4WK7ytE_16kernel_companionNtBa_15KernelCompanion4boot00s2_0s1_0Ba_
FN:315,_RNCNCNCNCNvMCseVkF4WK7ytE_16kernel_companionNtBa_15KernelCompanion4boot00s2_0s_0Ba_
FN:202,_RNCNCNCNvMCseVkF4WK7ytE_16kernel_companionNtB8_15KernelCompanion4boot000B8_
FN:235,_RNCNCNCNvMCseVkF4WK7ytE_16kernel_companionNtB8_15KernelCompanion4boot00s0_0B8_
FN:245,_RNCNCNCNvMCseVkF4WK7ytE_16kernel_companionNtB8_15KernelCompanion4boot00s1_0B8_
FN:307,_RNCNCNCNvMCseVkF4WK7ytE_16kernel_companionNtB8_15KernelCompanion4boot00s2_0B8_
FN:391,_RNCNCNCNvMCseVkF4WK7ytE_16kernel_companionNtB8_15KernelCompanion4boot00s3_0B8_
FN:223,_RNCNCNCNvMCseVkF4WK7ytE_16kernel_companionNtB8_15KernelCompanion4boot00s_0B8_
FN:419,_RNCNvMCseVkF4WK7ytE_16kernel_companionNtB4_15KernelCompanion3run0B4_
FN:176,_RNCNvMCseVkF4WK7ytE_16kernel_companionNtB4_15KernelCompanion4boot0B4_
FN:432,_RNCNvMCseVkF4WK7ytE_16kernel_companionNtB4_15KernelCompanion8shutdown0B4_
FN:419,_RNCNvMCseLUTM0PnGP2_16kernel_companionNtB4_15KernelCompanion3run0B4_
FN:166,_RNvMCseLUTM0PnGP2_16kernel_companionNtB2_15KernelCompanion17compute_scheduler
FN:419,_RNvMCseLUTM0PnGP2_16kernel_companionNtB2_15KernelCompanion3run
FN:502,_RNvXs_CseLUTM0PnGP2_16kernel_companionNtB4_15KernelCompanionNtNtCs13ARFDxRLcQ_4core7default7Default7default
FN:154,_RNvMCseLUTM0PnGP2_16kernel_companionNtB2_15KernelCompanion10intent_bus
FN:494,_RNvMCseLUTM0PnGP2_16kernel_companionNtB2_15KernelCompanion11is_attached
FN:86,_RNvMCseLUTM0PnGP2_16kernel_companionNtB2_15KernelCompanion11with_config
FN:482,_RNvMCseLUTM0PnGP2_16kernel_companionNtB2_15KernelCompanion14context_memory
FN:160,_RNvMCseLUTM0PnGP2_16kernel_companionNtB2_15KernelCompanion15agent_scheduler
FN:470,_RNvMCseLUTM0PnGP2_16kernel_companionNtB2_15KernelCompanion15classify_intent
FN:488,_RNvMCseLUTM0PnGP2_16kernel_companionNtB2_15KernelCompanion19capability_security
FN:79,_RNvMCseLUTM0PnGP2_16kernel_companionNtB2_15KernelCompanion3new
FN:176,_RNvMCseLUTM0PnGP2_16kernel_companionNtB2_15KernelCompanion4boot
FN:432,_RNvMCseLUTM0PnGP2_16kernel_companionNtB2_15KernelCompanion8shutdown
FN:527,_RNvNtCseLUTM0PnGP2_16kernel_companion5testss_35boot_attaches_and_shutdown_detaches
FN:512,_RNvNtCseLUTM0PnGP2_16kernel_companion5testss_44classify_intent_returns_expected_queue_class
FN:538,_RNvNtCseLUTM0PnGP2_16kernel_companion5testss_46repeated_boot_does_not_duplicate_routing_tasks
FN:527,_RNCNvNtCseLUTM0PnGP2_16kernel_companion5testss_35boot_attaches_and_shutdown_detaches0B5_
FN:538,_RNCNvNtCseLUTM0PnGP2_16kernel_companion5testss_46repeated_boot_does_not_duplicate_routing_tasks0B5_
FN:315,_RNCNCNCNCNvMCseLUTM0PnGP2_16kernel_companionNtBa_15KernelCompanion4boot00s2_0s0_0Ba_
FN:316,_RNCNCNCNCNvMCseLUTM0PnGP2_16kernel_companionNtBa_15KernelCompanion4boot00s2_0s1_0Ba_
FN:315,_RNCNCNCNCNvMCseLUTM0PnGP2_16kernel_companionNtBa_15KernelCompanion4boot00s2_0s_0Ba_
FN:202,_RNCNCNCNvMCseLUTM0PnGP2_16kernel_companionNtB8_15KernelCompanion4boot000B8_
FN:235,_RNCNCNCNvMCseLUTM0PnGP2_16kernel_companionNtB8_15KernelCompanion4boot00s0_0B8_
FN:245,_RNCNCNCNvMCseLUTM0PnGP2_16kernel_companionNtB8_15KernelCompanion4boot00s1_0B8_
FN:307,_RNCNCNCNvMCseLUTM0PnGP2_16kernel_companionNtB8_15KernelCompanion4boot00s2_0B8_
FN:391,_RNCNCNCNvMCseLUTM0PnGP2_16kernel_companionNtB8_15KernelCompanion4boot00s3_0B8_
FN:223,_RNCNCNCNvMCseLUTM0PnGP2_16kernel_companionNtB8_15KernelCompanion4boot00s_0B8_
FN:176,_RNCNvMCseLUTM0PnGP2_16kernel_companionNtB4_15KernelCompanion4boot0B4_
FN:432,_RNCNvMCseLUTM0PnGP2_16kernel_companionNtB4_15KernelCompanion8shutdown0B4_
FN:315,_RNCNCNCNCNvMCseVkF4WK7ytE_16kernel_companionNtBa_15KernelCompanion4boot00s2_0s0_0CshG9qMLwq2HM_16kernel_companion
FN:316,_RNCNCNCNCNvMCseVkF4WK7ytE_16kernel_companionNtBa_15KernelCompanion4boot00s2_0s1_0CshG9qMLwq2HM_16kernel_companion
FN:315,_RNCNCNCNCNvMCseVkF4WK7ytE_16kernel_companionNtBa_15KernelCompanion4boot00s2_0s_0CshG9qMLwq2HM_16kernel_companion
FN:202,_RNCNCNCNvMCseVkF4WK7ytE_16kernel_companionNtB8_15KernelCompanion4boot000CshG9qMLwq2HM_16kernel_companion
FN:235,_RNCNCNCNvMCseVkF4WK7ytE_16kernel_companionNtB8_15KernelCompanion4boot00s0_0CshG9qMLwq2HM_16kernel_companion
FN:245,_RNCNCNCNvMCseVkF4WK7ytE_16kernel_companionNtB8_15KernelCompanion4boot00s1_0CshG9qMLwq2HM_16kernel_companion
FN:307,_RNCNCNCNvMCseVkF4WK7ytE_16kernel_companionNtB8_15KernelCompanion4boot00s2_0CshG9qMLwq2HM_16kernel_companion
FN:391,_RNCNCNCNvMCseVkF4WK7ytE_16kernel_companionNtB8_15KernelCompanion4boot00s3_0CshG9qMLwq2HM_16kernel_companion
FN:223,_RNCNCNCNvMCseVkF4WK7ytE_16kernel_companionNtB8_15KernelCompanion4boot00s_0CshG9qMLwq2HM_16kernel_companion
FN:419,_RNCNvMCseVkF4WK7ytE_16kernel_companionNtB4_15KernelCompanion3run0CshG9qMLwq2HM_16kernel_companion
FN:176,_RNCNvMCseVkF4WK7ytE_16kernel_companionNtB4_15KernelCompanion4boot0CshG9qMLwq2HM_16kernel_companion
FN:432,_RNCNvMCseVkF4WK7ytE_16kernel_companionNtB4_15KernelCompanion8shutdown0CshG9qMLwq2HM_16kernel_companion
FN:154,_RNvMCseVkF4WK7ytE_16kernel_companionNtB2_15KernelCompanion10intent_bus
FN:494,_RNvMCseVkF4WK7ytE_16kernel_companionNtB2_15KernelCompanion11is_attached
FN:86,_RNvMCseVkF4WK7ytE_16kernel_companionNtB2_15KernelCompanion11with_config
FN:482,_RNvMCseVkF4WK7ytE_16kernel_companionNtB2_15KernelCompanion14context_memory
FN:160,_RNvMCseVkF4WK7ytE_16kernel_companionNtB2_15KernelCompanion15agent_scheduler
FN:470,_RNvMCseVkF4WK7ytE_16kernel_companionNtB2_15KernelCompanion15classify_intent
FN:166,_RNvMCseVkF4WK7ytE_16kernel_companionNtB2_15KernelCompanion17compute_scheduler
FN:488,_RNvMCseVkF4WK7ytE_16kernel_companionNtB2_15KernelCompanion19capability_security
FN:79,_RNvMCseVkF4WK7ytE_16kernel_companionNtB2_15KernelCompanion3new
FN:419,_RNvMCseVkF4WK7ytE_16kernel_companionNtB2_15KernelCompanion3run
FN:176,_RNvMCseVkF4WK7ytE_16kernel_companionNtB2_15KernelCompanion4boot
FN:432,_RNvMCseVkF4WK7ytE_16kernel_companionNtB2_15KernelCompanion8shutdown
FN:502,_RNvXs_CseVkF4WK7ytE_16kernel_companionNtB4_15KernelCompanionNtNtCs13ARFDxRLcQ_4core7default7Default7default
FNDA:0,_RNCNCNCNCNvMCseVkF4WK7ytE_16kernel_companionNtBa_15KernelCompanion4boot00s2_0s0_0Ba_
FNDA:0,_RNCNCNCNCNvMCseVkF4WK7ytE_16kernel_companionNtBa_15KernelCompanion4boot00s2_0s1_0Ba_
FNDA:0,_RNCNCNCNCNvMCseVkF4WK7ytE_16kernel_companionNtBa_15KernelCompanion4boot00s2_0s_0Ba_
FNDA:0,_RNCNCNCNvMCseVkF4WK7ytE_16kernel_companionNtB8_15KernelCompanion4boot000B8_
FNDA:0,_RNCNCNCNvMCseVkF4WK7ytE_16kernel_companionNtB8_15KernelCompanion4boot00s0_0B8_
FNDA:0,_RNCNCNCNvMCseVkF4WK7ytE_16kernel_companionNtB8_15KernelCompanion4boot00s1_0B8_
FNDA:0,_RNCNCNCNvMCseVkF4WK7ytE_16kernel_companionNtB8_15KernelCompanion4boot00s2_0B8_
FNDA:0,_RNCNCNCNvMCseVkF4WK7ytE_16kernel_companionNtB8_15KernelCompanion4boot00s3_0B8_
FNDA:0,_RNCNCNCNvMCseVkF4WK7ytE_16kernel_companionNtB8_15KernelCompanion4boot00s_0B8_
FNDA:0,_RNCNvMCseVkF4WK7ytE_16kernel_companionNtB4_15KernelCompanion3run0B4_
FNDA:0,_RNCNvMCseVkF4WK7ytE_16kernel_companionNtB4_15KernelCompanion4boot0B4_
FNDA:0,_RNCNvMCseVkF4WK7ytE_16kernel_companionNtB4_15KernelCompanion8shutdown0B4_
FNDA:0,_RNCNvMCseLUTM0PnGP2_16kernel_companionNtB4_15KernelCompanion3run0B4_
FNDA:0,_RNvMCseLUTM0PnGP2_16kernel_companionNtB2_15KernelCompanion17compute_scheduler
FNDA:0,_RNvMCseLUTM0PnGP2_16kernel_companionNtB2_15KernelCompanion3run
FNDA:0,_RNvXs_CseLUTM0PnGP2_16kernel_companionNtB4_15KernelCompanionNtNtCs13ARFDxRLcQ_4core7default7Default7default
FNDA:1,_RNvMCseLUTM0PnGP2_16kernel_companionNtB2_15KernelCompanion10intent_bus
FNDA:2,_RNvMCseLUTM0PnGP2_16kernel_companionNtB2_15KernelCompanion11is_attached
FNDA:3,_RNvMCseLUTM0PnGP2_16kernel_companionNtB2_15KernelCompanion11with_config
FNDA:3,_RNvMCseLUTM0PnGP2_16kernel_companionNtB2_15KernelCompanion14context_memory
FNDA:1,_RNvMCseLUTM0PnGP2_16kernel_companionNtB2_15KernelCompanion15agent_scheduler
FNDA:3,_RNvMCseLUTM0PnGP2_16kernel_companionNtB2_15KernelCompanion15classify_intent
FNDA:3,_RNvMCseLUTM0PnGP2_16kernel_companionNtB2_15KernelCompanion19capability_security
FNDA:3,_RNvMCseLUTM0PnGP2_16kernel_companionNtB2_15KernelCompanion3new
FNDA:3,_RNvMCseLUTM0PnGP2_16kernel_companionNtB2_15KernelCompanion4boot
FNDA:2,_RNvMCseLUTM0PnGP2_16kernel_companionNtB2_15KernelCompanion8shutdown
FNDA:1,_RNvNtCseLUTM0PnGP2_16kernel_companion5testss_35boot_attaches_and_shutdown_detaches
FNDA:1,_RNvNtCseLUTM0PnGP2_16kernel_companion5testss_44classify_intent_returns_expected_queue_class
FNDA:1,_RNvNtCseLUTM0PnGP2_16kernel_companion5testss_46repeated_boot_does_not_duplicate_routing_tasks
FNDA:1,_RNCNvNtCseLUTM0PnGP2_16kernel_companion5testss_35boot_attaches_and_shutdown_detaches0B5_
FNDA:1,_RNCNvNtCseLUTM0PnGP2_16kernel_companion5testss_46repeated_boot_does_not_duplicate_routing_tasks0B5_
FNDA:0,_RNCNCNCNCNvMCseLUTM0PnGP2_16kernel_companionNtBa_15KernelCompanion4boot00s2_0s0_0Ba_
FNDA:0,_RNCNCNCNCNvMCseLUTM0PnGP2_16kernel_companionNtBa_15KernelCompanion4boot00s2_0s1_0Ba_
FNDA:0,_RNCNCNCNCNvMCseLUTM0PnGP2_16kernel_companionNtBa_15KernelCompanion4boot00s2_0s_0Ba_
FNDA:2,_RNCNCNCNvMCseLUTM0PnGP2_16kernel_companionNtB8_15KernelCompanion4boot000B8_
FNDA:2,_RNCNCNCNvMCseLUTM0PnGP2_16kernel_companionNtB8_15KernelCompanion4boot00s0_0B8_
FNDA:2,_RNCNCNCNvMCseLUTM0PnGP2_16kernel_companionNtB8_15KernelCompanion4boot00s1_0B8_
FNDA:2,_RNCNCNCNvMCseLUTM0PnGP2_16kernel_companionNtB8_15KernelCompanion4boot00s2_0B8_
FNDA:2,_RNCNCNCNvMCseLUTM0PnGP2_16kernel_companionNtB8_15KernelCompanion4boot00s3_0B8_
FNDA:2,_RNCNCNCNvMCseLUTM0PnGP2_16kernel_companionNtB8_15KernelCompanion4boot00s_0B8_
FNDA:3,_RNCNvMCseLUTM0PnGP2_16kernel_companionNtB4_15KernelCompanion4boot0B4_
FNDA:2,_RNCNvMCseLUTM0PnGP2_16kernel_companionNtB4_15KernelCompanion8shutdown0B4_
FNDA:0,_RNCNCNCNCNvMCseVkF4WK7ytE_16kernel_companionNtBa_15KernelCompanion4boot00s2_0s0_0CshG9qMLwq2HM_16kernel_companion
FNDA:0,_RNCNCNCNCNvMCseVkF4WK7ytE_16kernel_companionNtBa_15KernelCompanion4boot00s2_0s1_0CshG9qMLwq2HM_16kernel_companion
FNDA:0,_RNCNCNCNCNvMCseVkF4WK7ytE_16kernel_companionNtBa_15KernelCompanion4boot00s2_0s_0CshG9qMLwq2HM_16kernel_companion
FNDA:0,_RNCNCNCNvMCseVkF4WK7ytE_16kernel_companionNtB8_15KernelCompanion4boot000CshG9qMLwq2HM_16kernel_companion
FNDA:0,_RNCNCNCNvMCseVkF4WK7ytE_16kernel_companionNtB8_15KernelCompanion4boot00s0_0CshG9qMLwq2HM_16kernel_companion
FNDA:0,_RNCNCNCNvMCseVkF4WK7ytE_16kernel_companionNtB8_15KernelCompanion4boot00s1_0CshG9qMLwq2HM_16kernel_companion
FNDA:0,_RNCNCNCNvMCseVkF4WK7ytE_16kernel_companionNtB8_15KernelCompanion4boot00s2_0CshG9qMLwq2HM_16kernel_companion
FNDA:0,_RNCNCNCNvMCseVkF4WK7ytE_16kernel_companionNtB8_15KernelCompanion4boot00s3_0CshG9qMLwq2HM_16kernel_companion
FNDA:0,_RNCNCNCNvMCseVkF4WK7ytE_16kernel_companionNtB8_15KernelCompanion4boot00s_0CshG9qMLwq2HM_16kernel_companion
FNDA:0,_RNCNvMCseVkF4WK7ytE_16kernel_companionNtB4_15KernelCompanion3run0CshG9qMLwq2HM_16kernel_companion
FNDA:0,_RNCNvMCseVkF4WK7ytE_16kernel_companionNtB4_15KernelCompanion4boot0CshG9qMLwq2HM_16kernel_companion
FNDA:0,_RNCNvMCseVkF4WK7ytE_16kernel_companionNtB4_15KernelCompanion8shutdown0CshG9qMLwq2HM_16kernel_companion
FNDA:0,_RNvMCseVkF4WK7ytE_16kernel_companionNtB2_15KernelCompanion10intent_bus
FNDA:0,_RNvMCseVkF4WK7ytE_16kernel_companionNtB2_15KernelCompanion11is_attached
FNDA:0,_RNvMCseVkF4WK7ytE_16kernel_companionNtB2_15KernelCompanion11with_config
FNDA:0,_RNvMCseVkF4WK7ytE_16kernel_companionNtB2_15KernelCompanion14context_memory
FNDA:0,_RNvMCseVkF4WK7ytE_16kernel_companionNtB2_15KernelCompanion15agent_scheduler
FNDA:0,_RNvMCseVkF4WK7ytE_16kernel_companionNtB2_15KernelCompanion15classify_intent
FNDA:0,_RNvMCseVkF4WK7ytE_16kernel_companionNtB2_15KernelCompanion17compute_scheduler
FNDA:0,_RNvMCseVkF4WK7ytE_16kernel_companionNtB2_15KernelCompanion19capability_security
FNDA:0,_RNvMCseVkF4WK7ytE_16kernel_companionNtB2_15KernelCompanion3new
FNDA:0,_RNvMCseVkF4WK7ytE_16kernel_companionNtB2_15KernelCompanion3run
FNDA:0,_RNvMCseVkF4WK7ytE_16kernel_companionNtB2_15KernelCompanion4boot
FNDA:0,_RNvMCseVkF4WK7ytE_16kernel_companionNtB2_15KernelCompanion8shutdown
FNDA:0,_RNvXs_CseVkF4WK7ytE_16kernel_companionNtB4_15KernelCompanionNtNtCs13ARFDxRLcQ_4core7default7Default7default
FNF:30
FNH:23
DA:79,3
DA:80,3
DA:81,3
DA:86,3
DA:87,3
DA:88,3
DA:89,3
DA:90,3
DA:91,3
DA:93,3
DA:94,3
DA:95,3
DA:97,3
DA:98,3
DA:99,3
DA:100,3
DA:101,3
DA:102,3
DA:103,3
DA:106,3
DA:107,3
DA:108,3
DA:109,3
DA:110,3
DA:112,3
DA:114,3
DA:115,3
DA:116,3
DA:117,3
DA:118,3
DA:120,3
DA:121,3
DA:122,3
DA:123,3
DA:124,3
DA:125,3
DA:128,3
DA:129,3
DA:130,3
DA:131,3
DA:132,3
DA:133,3
DA:134,3
DA:135,3
DA:136,3
DA:137,3
DA:138,3
DA:139,3
DA:140,3
DA:141,3
DA:142,3
DA:143,3
DA:144,3
DA:145,3
DA:146,3
DA:147,3
DA:148,3
DA:149,3
DA:150,3
DA:154,1
DA:155,1
DA:156,1
DA:160,1
DA:161,1
DA:162,1
DA:166,0
DA:167,0
DA:168,0
DA:176,3
DA:202,2
DA:204,6
DA:205,6
DA:206,4
DA:207,4
DA:208,4
DA:210,0
DA:213,6
DA:214,2
DA:215,2
DA:216,0
DA:220,2
DA:223,2
DA:224,2
DA:225,2
DA:226,2
DA:227,2
DA:233,3
DA:235,2
DA:236,2
DA:237,2
DA:245,2
DA:247,10
DA:248,10
DA:249,8
DA:250,8
DA:252,8
DA:253,0
DA:254,0
DA:255,0
DA:258,0
DA:259,0
DA:260,0
DA:261,0
DA:262,0
DA:263,0
DA:264,0
DA:266,0
DA:267,0
DA:270,0
DA:272,0
DA:273,0
DA:274,0
DA:275,0
DA:276,0
DA:277,0
DA:279,0
DA:280,0
DA:281,0
DA:282,0
DA:283,0
DA:286,0
DA:287,8
DA:289,10
DA:290,2
DA:291,2
DA:292,0
DA:296,2
DA:307,2
DA:308,2
DA:310,5
DA:312,5
DA:313,3
DA:314,0
DA:315,0
DA:316,0
DA:317,0
DA:318,0
DA:319,0
DA:321,0
DA:322,0
DA:323,0
DA:324,0
DA:327,0
DA:328,0
DA:329,0
DA:334,0
DA:335,0
DA:336,0
DA:337,0
DA:338,0
DA:339,3
DA:342,5
DA:344,0
DA:345,0
DA:346,0
DA:347,0
DA:355,0
DA:356,0
DA:357,0
DA:358,0
DA:361,0
DA:362,0
DA:363,0
DA:364,0
DA:366,5
DA:367,2
DA:368,2
DA:369,2
DA:370,0
DA:374,2
DA:391,2
DA:392,2
DA:393,2
DA:412,3
DA:419,0
DA:420,0
DA:423,0
DA:426,0
DA:427,0
DA:428,0
DA:432,2
DA:466,2
DA:470,3
DA:471,3
DA:472,1
DA:473,1
DA:474,0
DA:475,0
DA:476,1
DA:478,3
DA:482,3
DA:483,3
DA:484,3
DA:488,3
DA:489,3
DA:490,3
DA:494,2
DA:495,2
DA:496,2
DA:497,2
DA:498,2
DA:502,0
DA:503,0
DA:504,0
DA:512,1
DA:513,1
DA:515,1
DA:516,1
DA:519,1
DA:520,1
DA:521,1
DA:524,1
DA:527,1
DA:528,1
DA:530,1
DA:531,1
DA:533,1
DA:534,1
DA:535,1
DA:538,1
DA:539,1
DA:541,1
DA:542,1
DA:544,1
DA:545,1
DA:546,1
DA:547,1
DA:548,1
DA:549,1
DA:550,1
DA:551,1
DA:552,1
DA:553,1
DA:554,1
DA:556,1
DA:557,1
DA:558,1
DA:562,1
DA:563,1
BRF:0
BRH:0
LF:249
LH:172
end_of_record
SF:/home/lokis/Documents/AI-Native-Kernel/crates/kernel-companion/src/lsm.rs
FN:59,_RNCNvMNtCseVkF4WK7ytE_16kernel_companion3lsmNtB4_15LsmPolicyEngine11with_config0B6_
FN:264,_RNCNvNtCseVkF4WK7ytE_16kernel_companion3lsm19try_attach_real_lsm0B5_
FN:288,_RNCNvNtCseVkF4WK7ytE_16kernel_companion3lsm19try_attach_real_lsms0_0B5_
FN:271,_RNCNvNtCseVkF4WK7ytE_16kernel_companion3lsm19try_attach_real_lsms_0B5_
FN:75,_RINvMNtCseVkF4WK7ytE_16kernel_companion3lsmNtB3_15LsmPolicyEngine19add_blocked_syscallpEB5_
FN:55,_RNvMNtCseVkF4WK7ytE_16kernel_companion3lsmNtB2_15LsmPolicyEngine11with_config
FN:122,_RNvMNtCseVkF4WK7ytE_16kernel_companion3lsmNtB2_15LsmPolicyEngine18available_profiles
FN:132,_RNvMNtCseVkF4WK7ytE_16kernel_companion3lsmNtB2_15LsmPolicyEngine18set_active_profile
FN:113,_RNvMNtCseVkF4WK7ytE_16kernel_companion3lsmNtB2_15LsmPolicyEngine19active_profile_name
FN:152,_RNvMNtCseVkF4WK7ytE_16kernel_companion3lsmNtB2_15LsmPolicyEngine20decision_for_syscall
FN:101,_RNvMNtCseVkF4WK7ytE_16kernel_companion3lsmNtB2_15LsmPolicyEngine20get_allowed_syscalls
FN:90,_RNvMNtCseVkF4WK7ytE_16kernel_companion3lsmNtB2_15LsmPolicyEngine20get_blocked_syscalls
FN:49,_RNvMNtCseVkF4WK7ytE_16kernel_companion3lsmNtB2_15LsmPolicyEngine3new
FN:230,_RNvMs0_NtCseVkF4WK7ytE_16kernel_companion3lsmNtB5_13LsmAttachment11is_attached
FN:214,_RNvMs0_NtCseVkF4WK7ytE_16kernel_companion3lsmNtB5_13LsmAttachment12new_with_bpf
FN:204,_RNvMs0_NtCseVkF4WK7ytE_16kernel_companion3lsmNtB5_13LsmAttachment3new
FN:222,_RNvMs0_NtCseVkF4WK7ytE_16kernel_companion3lsmNtB5_13LsmAttachment6detach
FN:236,_RNvMs0_NtCseVkF4WK7ytE_16kernel_companion3lsmNtB5_13LsmAttachment7is_real
FN:341,_RNvNtCseVkF4WK7ytE_16kernel_companion3lsm16attach_lsm_hooks
FN:256,_RNvNtCseVkF4WK7ytE_16kernel_companion3lsm19try_attach_real_lsm
FN:242,_RNvXs1_NtCseVkF4WK7ytE_16kernel_companion3lsmNtB5_13LsmAttachmentNtNtCs13ARFDxRLcQ_4core7default7Default7default
FN:183,_RNvXs_NtCseVkF4WK7ytE_16kernel_companion3lsmNtB4_15LsmPolicyEngineNtNtCs13ARFDxRLcQ_4core7default7Default7default
FN:236,_RNvMs0_NtCseLUTM0PnGP2_16kernel_companion3lsmNtB5_13LsmAttachment7is_real
FN:242,_RNvXs1_NtCseLUTM0PnGP2_16kernel_companion3lsmNtB5_13LsmAttachmentNtNtCs13ARFDxRLcQ_4core7default7Default7default
FN:55,_RNvMNtCseLUTM0PnGP2_16kernel_companion3lsmNtB2_15LsmPolicyEngine11with_config
FN:122,_RNvMNtCseLUTM0PnGP2_16kernel_companion3lsmNtB2_15LsmPolicyEngine18available_profiles
FN:132,_RNvMNtCseLUTM0PnGP2_16kernel_companion3lsmNtB2_15LsmPolicyEngine18set_active_profile
FN:113,_RNvMNtCseLUTM0PnGP2_16kernel_companion3lsmNtB2_15LsmPolicyEngine19active_profile_name
FN:152,_RNvMNtCseLUTM0PnGP2_16kernel_companion3lsmNtB2_15LsmPolicyEngine20decision_for_syscall
FN:101,_RNvMNtCseLUTM0PnGP2_16kernel_companion3lsmNtB2_15LsmPolicyEngine20get_allowed_syscalls
FN:90,_RNvMNtCseLUTM0PnGP2_16kernel_companion3lsmNtB2_15LsmPolicyEngine20get_blocked_syscalls
FN:49,_RNvMNtCseLUTM0PnGP2_16kernel_companion3lsmNtB2_15LsmPolicyEngine3new
FN:230,_RNvMs0_NtCseLUTM0PnGP2_16kernel_companion3lsmNtB5_13LsmAttachment11is_attached
FN:214,_RNvMs0_NtCseLUTM0PnGP2_16kernel_companion3lsmNtB5_13LsmAttachment12new_with_bpf
FN:204,_RNvMs0_NtCseLUTM0PnGP2_16kernel_companion3lsmNtB5_13LsmAttachment3new
FN:222,_RNvMs0_NtCseLUTM0PnGP2_16kernel_companion3lsmNtB5_13LsmAttachment6detach
FN:341,_RNvNtCseLUTM0PnGP2_16kernel_companion3lsm16attach_lsm_hooks
FN:256,_RNvNtCseLUTM0PnGP2_16kernel_companion3lsm19try_attach_real_lsm
FN:183,_RNvXs_NtCseLUTM0PnGP2_16kernel_companion3lsmNtB4_15LsmPolicyEngineNtNtCs13ARFDxRLcQ_4core7default7Default7default
FN:381,_RNvNtNtCseLUTM0PnGP2_16kernel_companion3lsm5testss_14unknown_denied
FN:405,_RNvNtNtCseLUTM0PnGP2_16kernel_companion3lsm5testss_15default_is_deny
FN:396,_RNvNtNtCseLUTM0PnGP2_16kernel_companion3lsm5testss_20attachment_lifecycle
FN:363,_RNvNtNtCseLUTM0PnGP2_16kernel_companion3lsm5testss_26read_write_recvmsg_allowed
FN:372,_RNvNtNtCseLUTM0PnGP2_16kernel_companion3lsm5testss_33execve_fork_denied_socket_allowed
FN:448,_RNvNtNtCseLUTM0PnGP2_16kernel_companion3lsm5testss_36strict_profile_does_not_allow_socket
FN:440,_RNvNtNtCseLUTM0PnGP2_16kernel_companion3lsm5testss_37active_profile_is_exposed_from_config
FN:471,_RNvNtNtCseLUTM0PnGP2_16kernel_companion3lsm5testss_38switch_profile_rejects_unknown_profile
FN:459,_RNvNtNtCseLUTM0PnGP2_16kernel_companion3lsm5testss_40switch_profile_updates_allowlist_runtime
FN:417,_RNvNtNtCseLUTM0PnGP2_16kernel_companion3lsm5testss_48runtime_allowlist_covers_common_runtime_syscalls
FN:75,_RINvMNtCseLUTM0PnGP2_16kernel_companion3lsmNtB3_15LsmPolicyEngine19add_blocked_syscallRNtNtCs72dgD6uzVEf_5alloc6string6StringEB5_
FN:59,_RNCNvMNtCseLUTM0PnGP2_16kernel_companion3lsmNtB4_15LsmPolicyEngine11with_config0B6_
FN:264,_RNCNvNtCseLUTM0PnGP2_16kernel_companion3lsm19try_attach_real_lsm0B5_
FN:288,_RNCNvNtCseLUTM0PnGP2_16kernel_companion3lsm19try_attach_real_lsms0_0B5_
FN:271,_RNCNvNtCseLUTM0PnGP2_16kernel_companion3lsm19try_attach_real_lsms_0B5_
FN:75,_RINvMNtCseVkF4WK7ytE_16kernel_companion3lsmNtB3_15LsmPolicyEngine19add_blocked_syscallRNtNtCs72dgD6uzVEf_5alloc6string6StringECshG9qMLwq2HM_16kernel_companion
FNDA:12,_RNCNvMNtCseVkF4WK7ytE_16kernel_companion3lsmNtB4_15LsmPolicyEngine11with_config0B6_
FNDA:0,_RNCNvNtCseVkF4WK7ytE_16kernel_companion3lsm19try_attach_real_lsm0B5_
FNDA:0,_RNCNvNtCseVkF4WK7ytE_16kernel_companion3lsm19try_attach_real_lsms0_0B5_
FNDA:0,_RNCNvNtCseVkF4WK7ytE_16kernel_companion3lsm19try_attach_real_lsms_0B5_
FNDA:0,_RINvMNtCseVkF4WK7ytE_16kernel_companion3lsmNtB3_15LsmPolicyEngine19add_blocked_syscallpEB5_
FNDA:4,_RNvMNtCseVkF4WK7ytE_16kernel_companion3lsmNtB2_15LsmPolicyEngine11with_config
FNDA:0,_RNvMNtCseVkF4WK7ytE_16kernel_companion3lsmNtB2_15LsmPolicyEngine18available_profiles
FNDA:0,_RNvMNtCseVkF4WK7ytE_16kernel_companion3lsmNtB2_15LsmPolicyEngine18set_active_profile
FNDA:10012,_RNvMNtCseVkF4WK7ytE_16kernel_companion3lsmNtB2_15LsmPolicyEngine19active_profile_name
FNDA:10012,_RNvMNtCseVkF4WK7ytE_16kernel_companion3lsmNtB2_15LsmPolicyEngine20decision_for_syscall
FNDA:10012,_RNvMNtCseVkF4WK7ytE_16kernel_companion3lsmNtB2_15LsmPolicyEngine20get_allowed_syscalls
FNDA:0,_RNvMNtCseVkF4WK7ytE_16kernel_companion3lsmNtB2_15LsmPolicyEngine20get_blocked_syscalls
FNDA:4,_RNvMNtCseVkF4WK7ytE_16kernel_companion3lsmNtB2_15LsmPolicyEngine3new
FNDA:0,_RNvMs0_NtCseVkF4WK7ytE_16kernel_companion3lsmNtB5_13LsmAttachment11is_attached
FNDA:0,_RNvMs0_NtCseVkF4WK7ytE_16kernel_companion3lsmNtB5_13LsmAttachment12new_with_bpf
FNDA:0,_RNvMs0_NtCseVkF4WK7ytE_16kernel_companion3lsmNtB5_13LsmAttachment3new
FNDA:0,_RNvMs0_NtCseVkF4WK7ytE_16kernel_companion3lsmNtB5_13LsmAttachment6detach
FNDA:0,_RNvMs0_NtCseVkF4WK7ytE_16kernel_companion3lsmNtB5_13LsmAttachment7is_real
FNDA:0,_RNvNtCseVkF4WK7ytE_16kernel_companion3lsm16attach_lsm_hooks
FNDA:0,_RNvNtCseVkF4WK7ytE_16kernel_companion3lsm19try_attach_real_lsm
FNDA:0,_RNvXs1_NtCseVkF4WK7ytE_16kernel_companion3lsmNtB5_13LsmAttachmentNtNtCs13ARFDxRLcQ_4core7default7Default7default
FNDA:0,_RNvXs_NtCseVkF4WK7ytE_16kernel_companion3lsmNtB4_15LsmPolicyEngineNtNtCs13ARFDxRLcQ_4core7default7Default7default
FNDA:0,_RNvMs0_NtCseLUTM0PnGP2_16kernel_companion3lsmNtB5_13LsmAttachment7is_real
FNDA:0,_RNvXs1_NtCseLUTM0PnGP2_16kernel_companion3lsmNtB5_13LsmAttachmentNtNtCs13ARFDxRLcQ_4core7default7Default7default
FNDA:19,_RNvMNtCseLUTM0PnGP2_16kernel_companion3lsmNtB2_15LsmPolicyEngine11with_config
FNDA:1,_RNvMNtCseLUTM0PnGP2_16kernel_companion3lsmNtB2_15LsmPolicyEngine18available_profiles
FNDA:2,_RNvMNtCseLUTM0PnGP2_16kernel_companion3lsmNtB2_15LsmPolicyEngine18set_active_profile
FNDA:48,_RNvMNtCseLUTM0PnGP2_16kernel_companion3lsmNtB2_15LsmPolicyEngine19active_profile_name
FNDA:45,_RNvMNtCseLUTM0PnGP2_16kernel_companion3lsmNtB2_15LsmPolicyEngine20decision_for_syscall
FNDA:45,_RNvMNtCseLUTM0PnGP2_16kernel_companion3lsmNtB2_15LsmPolicyEngine20get_allowed_syscalls
FNDA:0,_RNvMNtCseLUTM0PnGP2_16kernel_companion3lsmNtB2_15LsmPolicyEngine20get_blocked_syscalls
FNDA:14,_RNvMNtCseLUTM0PnGP2_16kernel_companion3lsmNtB2_15LsmPolicyEngine3new
FNDA:3,_RNvMs0_NtCseLUTM0PnGP2_16kernel_companion3lsmNtB5_13LsmAttachment11is_attached
FNDA:0,_RNvMs0_NtCseLUTM0PnGP2_16kernel_companion3lsmNtB5_13LsmAttachment12new_with_bpf
FNDA:3,_RNvMs0_NtCseLUTM0PnGP2_16kernel_companion3lsmNtB5_13LsmAttachment3new
FNDA:3,_RNvMs0_NtCseLUTM0PnGP2_16kernel_companion3lsmNtB5_13LsmAttachment6detach
FNDA:2,_RNvNtCseLUTM0PnGP2_16kernel_companion3lsm16attach_lsm_hooks
FNDA:2,_RNvNtCseLUTM0PnGP2_16kernel_companion3lsm19try_attach_real_lsm
FNDA:1,_RNvXs_NtCseLUTM0PnGP2_16kernel_companion3lsmNtB4_15LsmPolicyEngineNtNtCs13ARFDxRLcQ_4core7default7Default7default
FNDA:1,_RNvNtNtCseLUTM0PnGP2_16kernel_companion3lsm5testss_14unknown_denied
FNDA:1,_RNvNtNtCseLUTM0PnGP2_16kernel_companion3lsm5testss_15default_is_deny
FNDA:1,_RNvNtNtCseLUTM0PnGP2_16kernel_companion3lsm5testss_20attachment_lifecycle
FNDA:1,_RNvNtNtCseLUTM0PnGP2_16kernel_companion3lsm5testss_26read_write_recvmsg_allowed
FNDA:1,_RNvNtNtCseLUTM0PnGP2_16kernel_companion3lsm5testss_33execve_fork_denied_socket_allowed
FNDA:1,_RNvNtNtCseLUTM0PnGP2_16kernel_companion3lsm5testss_36strict_profile_does_not_allow_socket
FNDA:1,_RNvNtNtCseLUTM0PnGP2_16kernel_companion3lsm5testss_37active_profile_is_exposed_from_config
FNDA:1,_RNvNtNtCseLUTM0PnGP2_16kernel_companion3lsm5testss_38switch_profile_rejects_unknown_profile
FNDA:1,_RNvNtNtCseLUTM0PnGP2_16kernel_companion3lsm5testss_40switch_profile_updates_allowlist_runtime
FNDA:1,_RNvNtNtCseLUTM0PnGP2_16kernel_companion3lsm5testss_48runtime_allowlist_covers_common_runtime_syscalls
FNDA:0,_RINvMNtCseLUTM0PnGP2_16kernel_companion3lsmNtB3_15LsmPolicyEngine19add_blocked_syscallRNtNtCs72dgD6uzVEf_5alloc6string6StringEB5_
FNDA:57,_RNCNvMNtCseLUTM0PnGP2_16kernel_companion3lsmNtB4_15LsmPolicyEngine11with_config0B6_
FNDA:0,_RNCNvNtCseLUTM0PnGP2_16kernel_companion3lsm19try_attach_real_lsm0B5_
FNDA:0,_RNCNvNtCseLUTM0PnGP2_16kernel_companion3lsm19try_attach_real_lsms0_0B5_
FNDA:0,_RNCNvNtCseLUTM0PnGP2_16kernel_companion3lsm19try_attach_real_lsms_0B5_
FNDA:0,_RINvMNtCseVkF4WK7ytE_16kernel_companion3lsmNtB3_15LsmPolicyEngine19add_blocked_syscallRNtNtCs72dgD6uzVEf_5alloc6string6StringECshG9qMLwq2HM_16kernel_companion
FNF:32
FNH:24
DA:49,18
DA:50,18
DA:51,18
DA:55,23
DA:56,23
DA:57,23
DA:58,23
DA:59,69
DA:60,69
DA:61,69
DA:62,69
DA:63,69
DA:64,69
DA:65,23
DA:66,23
DA:67,23
DA:68,23
DA:69,23
DA:70,23
DA:71,23
DA:72,23
DA:75,0
DA:76,0
DA:77,0
DA:78,0
DA:79,0
DA:80,0
DA:81,0
DA:82,0
DA:83,0
DA:84,0
DA:85,0
DA:86,0
DA:87,0
DA:90,0
DA:91,0
DA:92,0
DA:93,0
DA:94,0
DA:95,0
DA:96,0
DA:97,0
DA:101,10057
DA:102,10057
DA:103,10057
DA:104,10057
DA:105,10057
DA:106,10057
DA:107,10057
DA:108,10057
DA:109,10057
DA:113,10060
DA:114,10060
DA:115,10060
DA:116,10060
DA:117,10060
DA:118,10060
DA:122,1
DA:123,1
DA:124,1
DA:125,1
DA:126,1
DA:127,1
DA:128,1
DA:129,1
DA:132,2
DA:133,2
DA:134,2
DA:135,1
DA:136,1
DA:137,1
DA:139,1
DA:140,1
DA:141,1
DA:142,1
DA:143,1
DA:144,2
DA:152,10057
DA:153,10057
DA:155,10057
DA:156,10057
DA:157,10057
DA:158,10057
DA:159,10057
DA:161,0
DA:162,0
DA:166,0
DA:167,10057
DA:169,10057
DA:170,10033
DA:171,10033
DA:172,10033
DA:173,24
DA:176,24
DA:177,24
DA:178,24
DA:179,10057
DA:183,1
DA:184,1
DA:185,1
DA:204,3
DA:205,3
DA:206,3
DA:207,3
DA:208,3
DA:209,3
DA:214,0
DA:215,0
DA:216,0
DA:217,0
DA:218,0
DA:219,0
DA:222,3
DA:224,3
DA:225,3
DA:226,3
DA:230,3
DA:231,3
DA:232,3
DA:236,0
DA:237,0
DA:238,0
DA:242,0
DA:243,0
DA:244,0
DA:256,2
DA:257,2
DA:258,2
DA:259,2
DA:263,0
DA:264,0
DA:269,0
DA:270,0
DA:271,0
DA:272,0
DA:274,0
DA:276,0
DA:279,0
DA:280,0
DA:286,0
DA:287,0
DA:288,0
DA:289,0
DA:290,0
DA:291,0
DA:292,0
DA:293,0
DA:298,0
DA:300,0
DA:301,0
DA:302,0
DA:303,0
DA:305,0
DA:307,0
DA:311,0
DA:313,0
DA:314,0
DA:315,0
DA:316,0
DA:317,0
DA:318,0
DA:319,0
DA:322,0
DA:324,0
DA:326,0
DA:327,0
DA:328,0
DA:329,0
DA:330,2
DA:341,2
DA:342,2
DA:343,2
DA:344,0
DA:345,0
DA:346,0
DA:348,2
DA:349,2
DA:350,2
DA:351,2
DA:352,2
DA:353,2
DA:356,2
DA:363,1
DA:365,1
DA:366,1
DA:367,1
DA:368,1
DA:369,1
DA:372,1
DA:374,1
DA:375,1
DA:376,1
DA:377,1
DA:378,1
DA:381,1
DA:383,1
DA:384,1
DA:385,1
DA:388,1
DA:389,1
DA:390,1
DA:393,1
DA:396,1
DA:398,1
DA:399,1
DA:400,1
DA:401,1
DA:402,1
DA:405,1
DA:407,1
DA:409,1
DA:410,1
DA:414,1
DA:417,1
DA:418,1
DA:419,10
DA:420,1
DA:421,1
DA:422,1
DA:423,1
DA:424,1
DA:425,1
DA:426,1
DA:427,1
DA:428,1
DA:429,1
DA:430,1
DA:431,10
DA:432,10
DA:437,1
DA:440,1
DA:441,1
DA:442,1
DA:443,1
DA:444,1
DA:445,1
DA:448,1
DA:449,1
DA:450,1
DA:451,1
DA:452,1
DA:453,1
DA:454,1
DA:455,1
DA:456,1
DA:459,1
DA:460,1
DA:461,1
DA:462,1
DA:463,1
DA:464,1
DA:465,1
DA:466,1
DA:467,1
DA:468,1
DA:471,1
DA:472,1
DA:473,1
DA:474,1
DA:475,1
DA:476,1
DA:478,1
DA:480,1
BRF:0
BRH:0
LF:267
LH:186
end_of_record
SF:/home/lokis/Documents/AI-Native-Kernel/crates/kernel-companion/src/main.rs
FN:68,_RNvCshG9qMLwq2HM_16kernel_companion4main
FN:68,_RNCNvCshG9qMLwq2HM_16kernel_companion4main0B3_
FN:68,_RNCNvCsfClk4bj3TtL_16kernel_companion4main0B3_
FN:68,_RNvCsfClk4bj3TtL_16kernel_companion4main
FNDA:0,_RNvCshG9qMLwq2HM_16kernel_companion4main
FNDA:0,_RNCNvCshG9qMLwq2HM_16kernel_companion4main0B3_
FNDA:0,_RNCNvCsfClk4bj3TtL_16kernel_companion4main0B3_
FNDA:0,_RNvCsfClk4bj3TtL_16kernel_companion4main
FNF:2
FNH:0
DA:68,0
DA:69,0
DA:72,0
DA:73,0
DA:75,0
DA:79,0
DA:80,0
DA:81,0
DA:82,0
DA:83,0
DA:84,0
DA:85,0
DA:86,0
DA:87,0
DA:88,0
DA:89,0
DA:90,0
DA:91,0
DA:92,0
DA:93,0
DA:94,0
DA:95,0
DA:96,0
DA:97,0
DA:98,0
DA:99,0
DA:100,0
DA:101,0
DA:102,0
DA:103,0
DA:104,0
DA:105,0
DA:106,0
DA:108,0
DA:110,0
DA:115,0
DA:116,0
DA:117,0
BRF:0
BRH:0
LF:40
LH:0
end_of_record
SF:/home/lokis/Documents/AI-Native-Kernel/crates/kernel-companion/src/metrics_server.rs
FN:27,_RNCNCNvNtCseVkF4WK7ytE_16kernel_companion14metrics_server20start_metrics_server0s0_0B7_
FN:10,_RNCNvNtCseVkF4WK7ytE_16kernel_companion14metrics_server20start_metrics_server0B5_
FN:10,_RNvNtCseVkF4WK7ytE_16kernel_companion14metrics_server20start_metrics_server
FN:10,_RNvNtCseLUTM0PnGP2_16kernel_companion14metrics_server20start_metrics_server
FN:93,_RNCNCNvNtNtCseLUTM0PnGP2_16kernel_companion14metrics_server5testss_42test_metrics_server_lifecycle_and_response00B9_
FN:83,_RNCNvNtNtCseLUTM0PnGP2_16kernel_companion14metrics_server5testss_42test_metrics_server_lifecycle_and_response0B7_
FN:83,_RNvNtNtCseLUTM0PnGP2_16kernel_companion14metrics_server5testss_42test_metrics_server_lifecycle_and_response
FN:27,_RNCNCNvNtCseLUTM0PnGP2_16kernel_companion14metrics_server20start_metrics_server0s0_0B7_
FN:10,_RNCNvNtCseLUTM0PnGP2_16kernel_companion14metrics_server20start_metrics_server0B5_
FNDA:0,_RNCNCNvNtCseVkF4WK7ytE_16kernel_companion14metrics_server20start_metrics_server0s0_0B7_
FNDA:0,_RNCNvNtCseVkF4WK7ytE_16kernel_companion14metrics_server20start_metrics_server0B5_
FNDA:0,_RNvNtCseVkF4WK7ytE_16kernel_companion14metrics_server20start_metrics_server
FNDA:3,_RNvNtCseLUTM0PnGP2_16kernel_companion14metrics_server20start_metrics_server
FNDA:1,_RNCNCNvNtNtCseLUTM0PnGP2_16kernel_companion14metrics_server5testss_42test_metrics_server_lifecycle_and_response00B9_
FNDA:1,_RNCNvNtNtCseLUTM0PnGP2_16kernel_companion14metrics_server5testss_42test_metrics_server_lifecycle_and_response0B7_
FNDA:1,_RNvNtNtCseLUTM0PnGP2_16kernel_companion14metrics_server5testss_42test_metrics_server_lifecycle_and_response
FNDA:2,_RNCNCNvNtCseLUTM0PnGP2_16kernel_companion14metrics_server20start_metrics_server0s0_0B7_
FNDA:3,_RNCNvNtCseLUTM0PnGP2_16kernel_companion14metrics_server20start_metrics_server0B5_
FNF:6
FNH:6
DA:10,3
DA:11,3
DA:12,3
DA:13,3
DA:14,2
DA:17,5
DA:18,5
DA:19,3
DA:20,2
DA:21,2
DA:22,1
DA:24,5
DA:25,2
DA:26,2
DA:27,2
DA:28,2
DA:29,2
DA:30,2
DA:33,2
DA:34,2
DA:36,1
DA:37,1
DA:38,1
DA:45,1
DA:48,1
DA:50,0
DA:51,0
DA:52,0
DA:53,0
DA:58,1
DA:59,1
DA:61,2
DA:62,0
DA:63,2
DA:65,0
DA:66,0
DA:73,2
DA:74,3
DA:83,1
DA:84,1
DA:85,1
DA:86,1
DA:87,1
DA:90,1
DA:91,1
DA:92,1
DA:93,1
DA:94,1
DA:97,1
DA:98,1
DA:99,1
DA:100,1
DA:101,1
DA:102,1
DA:103,1
DA:104,1
DA:107,1
DA:108,1
DA:111,1
DA:112,1
DA:115,1
DA:116,1
DA:117,1
DA:118,1
DA:119,1
DA:120,1
DA:121,1
DA:122,1
DA:124,1
DA:125,1
DA:126,1
DA:129,1
DA:130,1
DA:131,1
DA:132,1
DA:133,1
DA:134,1
BRF:0
BRH:0
LF:85
LH:78
end_of_record
SF:/home/lokis/Documents/AI-Native-Kernel/crates/kernel-companion/src/observability.rs
FN:131,_RNCNvNtCseVkF4WK7ytE_16kernel_companion13observability14kernel_metrics0B5_
FN:203,_RNCNvXs0_NtCseVkF4WK7ytE_16kernel_companion13observabilityNtB7_16SimpleSubscriberNtNtCsj4LBVRCbCBd_12tracing_core10subscriber10Subscriber5event0B9_
FN:108,_RNvMNtCseVkF4WK7ytE_16kernel_companion13observabilityNtB2_13KernelMetrics15set_active_mode
FN:92,_RNvMNtCseVkF4WK7ytE_16kernel_companion13observabilityNtB2_13KernelMetrics19record_lsm_decision
FN:122,_RNvMNtCseVkF4WK7ytE_16kernel_companion13observabilityNtB2_13KernelMetrics19record_syscall_drop
FN:116,_RNvMNtCseVkF4WK7ytE_16kernel_companion13observabilityNtB2_13KernelMetrics20record_syscall_event
FN:98,_RNvMNtCseVkF4WK7ytE_16kernel_companion13observabilityNtB2_13KernelMetrics20set_blocked_syscalls
FN:102,_RNvMNtCseVkF4WK7ytE_16kernel_companion13observabilityNtB2_13KernelMetrics21record_attach_attempt
FN:29,_RNvMNtCseVkF4WK7ytE_16kernel_companion13observabilityNtB2_13KernelMetrics8register
FN:246,_RNvMs1_NtCseVkF4WK7ytE_16kernel_companion13observabilityNtB5_12EventVisitor10push_field
FN:250,_RNvMs1_NtCseVkF4WK7ytE_16kernel_companion13observabilityNtB5_12EventVisitor13render_suffix
FN:171,_RNvMs_NtCseVkF4WK7ytE_16kernel_companion13observabilityNtB4_16SimpleSubscriber3new
FN:155,_RNvNtCseVkF4WK7ytE_16kernel_companion13observability11parse_level
FN:137,_RNvNtCseVkF4WK7ytE_16kernel_companion13observability12init_tracing
FN:130,_RNvNtCseVkF4WK7ytE_16kernel_companion13observability14kernel_metrics
FN:219,_RNvXs0_NtCseVkF4WK7ytE_16kernel_companion13observabilityNtB5_16SimpleSubscriberNtNtCsj4LBVRCbCBd_12tracing_core10subscriber10Subscriber10clone_span
FN:235,_RNvXs0_NtCseVkF4WK7ytE_16kernel_companion13observabilityNtB5_16SimpleSubscriberNtNtCsj4LBVRCbCBd_12tracing_core10subscriber10Subscriber14max_level_hint
FN:227,_RNvXs0_NtCseVkF4WK7ytE_16kernel_companion13observabilityNtB5_16SimpleSubscriberNtNtCsj4LBVRCbCBd_12tracing_core10subscriber10Subscriber17register_callsite
FN:190,_RNvXs0_NtCseVkF4WK7ytE_16kernel_companion13observabilityNtB5_16SimpleSubscriberNtNtCsj4LBVRCbCBd_12tracing_core10subscriber10Subscriber19record_follows_from
FN:217,_RNvXs0_NtCseVkF4WK7ytE_16kernel_companion13observabilityNtB5_16SimpleSubscriberNtNtCsj4LBVRCbCBd_12tracing_core10subscriber10Subscriber4exit
FN:215,_RNvXs0_NtCseVkF4WK7ytE_16kernel_companion13observabilityNtB5_16SimpleSubscriberNtNtCsj4LBVRCbCBd_12tracing_core10subscriber10Subscriber5enter
FN:192,_RNvXs0_NtCseVkF4WK7ytE_16kernel_companion13observabilityNtB5_16SimpleSubscriberNtNtCsj4LBVRCbCBd_12tracing_core10subscriber10Subscriber5event
FN:188,_RNvXs0_NtCseVkF4WK7ytE_16kernel_companion13observabilityNtB5_16SimpleSubscriberNtNtCsj4LBVRCbCBd_12tracing_core10subscriber10Subscriber6record
FN:180,_RNvXs0_NtCseVkF4WK7ytE_16kernel_companion13observabilityNtB5_16SimpleSubscriberNtNtCsj4LBVRCbCBd_12tracing_core10subscriber10Subscriber7enabled
FN:184,_RNvXs0_NtCseVkF4WK7ytE_16kernel_companion13observabilityNtB5_16SimpleSubscriberNtNtCsj4LBVRCbCBd_12tracing_core10subscriber10Subscriber8new_span
FN:223,_RNvXs0_NtCseVkF4WK7ytE_16kernel_companion13observabilityNtB5_16SimpleSubscriberNtNtCsj4LBVRCbCBd_12tracing_core10subscriber10Subscriber9try_close
FN:268,_RNvXs2_NtCseVkF4WK7ytE_16kernel_companion13observabilityNtB5_12EventVisitorNtNtCsj4LBVRCbCBd_12tracing_core5field5Visit10record_i64
FN:260,_RNvXs2_NtCseVkF4WK7ytE_16kernel_companion13observabilityNtB5_12EventVisitorNtNtCsj4LBVRCbCBd_12tracing_core5field5Visit10record_str
FN:272,_RNvXs2_NtCseVkF4WK7ytE_16kernel_companion13observabilityNtB5_12EventVisitorNtNtCsj4LBVRCbCBd_12tracing_core5field5Visit10record_u64
FN:264,_RNvXs2_NtCseVkF4WK7ytE_16kernel_companion13observabilityNtB5_12EventVisitorNtNtCsj4LBVRCbCBd_12tracing_core5field5Visit11record_bool
FN:276,_RNvXs2_NtCseVkF4WK7ytE_16kernel_companion13observabilityNtB5_12EventVisitorNtNtCsj4LBVRCbCBd_12tracing_core5field5Visit12record_debug
FN:203,_RNCNvXs0_NtCseLUTM0PnGP2_16kernel_companion13observabilityNtB7_16SimpleSubscriberNtNtCsj4LBVRCbCBd_12tracing_core10subscriber10Subscriber5event0B9_
FN:246,_RNvMs1_NtCseLUTM0PnGP2_16kernel_companion13observabilityNtB5_12EventVisitor10push_field
FN:250,_RNvMs1_NtCseLUTM0PnGP2_16kernel_companion13observabilityNtB5_12EventVisitor13render_suffix
FN:171,_RNvMs_NtCseLUTM0PnGP2_16kernel_companion13observabilityNtB4_16SimpleSubscriber3new
FN:155,_RNvNtCseLUTM0PnGP2_16kernel_companion13observability11parse_level
FN:137,_RNvNtCseLUTM0PnGP2_16kernel_companion13observability12init_tracing
FN:219,_RNvXs0_NtCseLUTM0PnGP2_16kernel_companion13observabilityNtB5_16SimpleSubscriberNtNtCsj4LBVRCbCBd_12tracing_core10subscriber10Subscriber10clone_span
FN:235,_RNvXs0_NtCseLUTM0PnGP2_16kernel_companion13observabilityNtB5_16SimpleSubscriberNtNtCsj4LBVRCbCBd_12tracing_core10subscriber10Subscriber14max_level_hint
FN:227,_RNvXs0_NtCseLUTM0PnGP2_16kernel_companion13observabilityNtB5_16SimpleSubscriberNtNtCsj4LBVRCbCBd_12tracing_core10subscriber10Subscriber17register_callsite
FN:190,_RNvXs0_NtCseLUTM0PnGP2_16kernel_companion13observabilityNtB5_16SimpleSubscriberNtNtCsj4LBVRCbCBd_12tracing_core10subscriber10Subscriber19record_follows_from
FN:217,_RNvXs0_NtCseLUTM0PnGP2_16kernel_companion13observabilityNtB5_16SimpleSubscriberNtNtCsj4LBVRCbCBd_12tracing_core10subscriber10Subscriber4exit
FN:215,_RNvXs0_NtCseLUTM0PnGP2_16kernel_companion13observabilityNtB5_16SimpleSubscriberNtNtCsj4LBVRCbCBd_12tracing_core10subscriber10Subscriber5enter
FN:192,_RNvXs0_NtCseLUTM0PnGP2_16kernel_companion13observabilityNtB5_16SimpleSubscriberNtNtCsj4LBVRCbCBd_12tracing_core10subscriber10Subscriber5event
FN:188,_RNvXs0_NtCseLUTM0PnGP2_16kernel_companion13observabilityNtB5_16SimpleSubscriberNtNtCsj4LBVRCbCBd_12tracing_core10subscriber10Subscriber6record
FN:180,_RNvXs0_NtCseLUTM0PnGP2_16kernel_companion13observabilityNtB5_16SimpleSubscriberNtNtCsj4LBVRCbCBd_12tracing_core10subscriber10Subscriber7enabled
FN:184,_RNvXs0_NtCseLUTM0PnGP2_16kernel_companion13observabilityNtB5_16SimpleSubscriberNtNtCsj4LBVRCbCBd_12tracing_core10subscriber10Subscriber8new_span
FN:223,_RNvXs0_NtCseLUTM0PnGP2_16kernel_companion13observabilityNtB5_16SimpleSubscriberNtNtCsj4LBVRCbCBd_12tracing_core10subscriber10Subscriber9try_close
FN:268,_RNvXs2_NtCseLUTM0PnGP2_16kernel_companion13observabilityNtB5_12EventVisitorNtNtCsj4LBVRCbCBd_12tracing_core5field5Visit10record_i64
FN:260,_RNvXs2_NtCseLUTM0PnGP2_16kernel_companion13observabilityNtB5_12EventVisitorNtNtCsj4LBVRCbCBd_12tracing_core5field5Visit10record_str
FN:272,_RNvXs2_NtCseLUTM0PnGP2_16kernel_companion13observabilityNtB5_12EventVisitorNtNtCsj4LBVRCbCBd_12tracing_core5field5Visit10record_u64
FN:264,_RNvXs2_NtCseLUTM0PnGP2_16kernel_companion13observabilityNtB5_12EventVisitorNtNtCsj4LBVRCbCBd_12tracing_core5field5Visit11record_bool
FN:276,_RNvXs2_NtCseLUTM0PnGP2_16kernel_companion13observabilityNtB5_12EventVisitorNtNtCsj4LBVRCbCBd_12tracing_core5field5Visit12record_debug
FN:286,_RNvNtNtCseLUTM0PnGP2_16kernel_companion13observability5testss_34register_and_render_kernel_metrics
FN:131,_RNCNvNtCseLUTM0PnGP2_16kernel_companion13observability14kernel_metrics0B5_
FN:108,_RNvMNtCseLUTM0PnGP2_16kernel_companion13observabilityNtB2_13KernelMetrics15set_active_mode
FN:92,_RNvMNtCseLUTM0PnGP2_16kernel_companion13observabilityNtB2_13KernelMetrics19record_lsm_decision
FN:122,_RNvMNtCseLUTM0PnGP2_16kernel_companion13observabilityNtB2_13KernelMetrics19record_syscall_drop
FN:116,_RNvMNtCseLUTM0PnGP2_16kernel_companion13observabilityNtB2_13KernelMetrics20record_syscall_event
FN:98,_RNvMNtCseLUTM0PnGP2_16kernel_companion13observabilityNtB2_13KernelMetrics20set_blocked_syscalls
FN:102,_RNvMNtCseLUTM0PnGP2_16kernel_companion13observabilityNtB2_13KernelMetrics21record_attach_attempt
FN:29,_RNvMNtCseLUTM0PnGP2_16kernel_companion13observabilityNtB2_13KernelMetrics8register
FN:130,_RNvNtCseLUTM0PnGP2_16kernel_companion13observability14kernel_metrics
FNDA:2,_RNCNvNtCseVkF4WK7ytE_16kernel_companion13observability14kernel_metrics0B5_
FNDA:0,_RNCNvXs0_NtCseVkF4WK7ytE_16kernel_companion13observabilityNtB7_16SimpleSubscriberNtNtCsj4LBVRCbCBd_12tracing_core10subscriber10Subscriber5event0B9_
FNDA:3,_RNvMNtCseVkF4WK7ytE_16kernel_companion13observabilityNtB2_13KernelMetrics15set_active_mode
FNDA:10012,_RNvMNtCseVkF4WK7ytE_16kernel_companion13observabilityNtB2_13KernelMetrics19record_lsm_decision
FNDA:0,_RNvMNtCseVkF4WK7ytE_16kernel_companion13observabilityNtB2_13KernelMetrics19record_syscall_drop
FNDA:10012,_RNvMNtCseVkF4WK7ytE_16kernel_companion13observabilityNtB2_13KernelMetrics20record_syscall_event
FNDA:0,_RNvMNtCseVkF4WK7ytE_16kernel_companion13observabilityNtB2_13KernelMetrics20set_blocked_syscalls
FNDA:3,_RNvMNtCseVkF4WK7ytE_16kernel_companion13observabilityNtB2_13KernelMetrics21record_attach_attempt
FNDA:2,_RNvMNtCseVkF4WK7ytE_16kernel_companion13observabilityNtB2_13KernelMetrics8register
FNDA:0,_RNvMs1_NtCseVkF4WK7ytE_16kernel_companion13observabilityNtB5_12EventVisitor10push_field
FNDA:0,_RNvMs1_NtCseVkF4WK7ytE_16kernel_companion13observabilityNtB5_12EventVisitor13render_suffix
FNDA:0,_RNvMs_NtCseVkF4WK7ytE_16kernel_companion13observabilityNtB4_16SimpleSubscriber3new
FNDA:0,_RNvNtCseVkF4WK7ytE_16kernel_companion13observability11parse_level
FNDA:0,_RNvNtCseVkF4WK7ytE_16kernel_companion13observability12init_tracing
FNDA:20030,_RNvNtCseVkF4WK7ytE_16kernel_companion13observability14kernel_metrics
FNDA:0,_RNvXs0_NtCseVkF4WK7ytE_16kernel_companion13observabilityNtB5_16SimpleSubscriberNtNtCsj4LBVRCbCBd_12tracing_core10subscriber10Subscriber10clone_span
FNDA:0,_RNvXs0_NtCseVkF4WK7ytE_16kernel_companion13observabilityNtB5_16SimpleSubscriberNtNtCsj4LBVRCbCBd_12tracing_core10subscriber10Subscriber14max_level_hint
FNDA:0,_RNvXs0_NtCseVkF4WK7ytE_16kernel_companion13observabilityNtB5_16SimpleSubscriberNtNtCsj4LBVRCbCBd_12tracing_core10subscriber10Subscriber17register_callsite
FNDA:0,_RNvXs0_NtCseVkF4WK7ytE_16kernel_companion13observabilityNtB5_16SimpleSubscriberNtNtCsj4LBVRCbCBd_12tracing_core10subscriber10Subscriber19record_follows_from
FNDA:0,_RNvXs0_NtCseVkF4WK7ytE_16kernel_companion13observabilityNtB5_16SimpleSubscriberNtNtCsj4LBVRCbCBd_12tracing_core10subscriber10Subscriber4exit
FNDA:0,_RNvXs0_NtCseVkF4WK7ytE_16kernel_companion13observabilityNtB5_16SimpleSubscriberNtNtCsj4LBVRCbCBd_12tracing_core10subscriber10Subscriber5enter
FNDA:0,_RNvXs0_NtCseVkF4WK7ytE_16kernel_companion13observabilityNtB5_16SimpleSubscriberNtNtCsj4LBVRCbCBd_12tracing_core10subscriber10Subscriber5event
FNDA:0,_RNvXs0_NtCseVkF4WK7ytE_16kernel_companion13observabilityNtB5_16SimpleSubscriberNtNtCsj4LBVRCbCBd_12tracing_core10subscriber10Subscriber6record
FNDA:0,_RNvXs0_NtCseVkF4WK7ytE_16kernel_companion13observabilityNtB5_16SimpleSubscriberNtNtCsj4LBVRCbCBd_12tracing_core10subscriber10Subscriber7enabled
FNDA:0,_RNvXs0_NtCseVkF4WK7ytE_16kernel_companion13observabilityNtB5_16SimpleSubscriberNtNtCsj4LBVRCbCBd_12tracing_core10subscriber10Subscriber8new_span
FNDA:0,_RNvXs0_NtCseVkF4WK7ytE_16kernel_companion13observabilityNtB5_16SimpleSubscriberNtNtCsj4LBVRCbCBd_12tracing_core10subscriber10Subscriber9try_close
FNDA:0,_RNvXs2_NtCseVkF4WK7ytE_16kernel_companion13observabilityNtB5_12EventVisitorNtNtCsj4LBVRCbCBd_12tracing_core5field5Visit10record_i64
FNDA:0,_RNvXs2_NtCseVkF4WK7ytE_16kernel_companion13observabilityNtB5_12EventVisitorNtNtCsj4LBVRCbCBd_12tracing_core5field5Visit10record_str
FNDA:0,_RNvXs2_NtCseVkF4WK7ytE_16kernel_companion13observabilityNtB5_12EventVisitorNtNtCsj4LBVRCbCBd_12tracing_core5field5Visit10record_u64
FNDA:0,_RNvXs2_NtCseVkF4WK7ytE_16kernel_companion13observabilityNtB5_12EventVisitorNtNtCsj4LBVRCbCBd_12tracing_core5field5Visit11record_bool
FNDA:0,_RNvXs2_NtCseVkF4WK7ytE_16kernel_companion13observabilityNtB5_12EventVisitorNtNtCsj4LBVRCbCBd_12tracing_core5field5Visit12record_debug
FNDA:0,_RNCNvXs0_NtCseLUTM0PnGP2_16kernel_companion13observabilityNtB7_16SimpleSubscriberNtNtCsj4LBVRCbCBd_12tracing_core10subscriber10Subscriber5event0B9_
FNDA:0,_RNvMs1_NtCseLUTM0PnGP2_16kernel_companion13observabilityNtB5_12EventVisitor10push_field
FNDA:0,_RNvMs1_NtCseLUTM0PnGP2_16kernel_companion13observabilityNtB5_12EventVisitor13render_suffix
FNDA:0,_RNvMs_NtCseLUTM0PnGP2_16kernel_companion13observabilityNtB4_16SimpleSubscriber3new
FNDA:0,_RNvNtCseLUTM0PnGP2_16kernel_companion13observability11parse_level
FNDA:0,_RNvNtCseLUTM0PnGP2_16kernel_companion13observability12init_tracing
FNDA:0,_RNvXs0_NtCseLUTM0PnGP2_16kernel_companion13observabilityNtB5_16SimpleSubscriberNtNtCsj4LBVRCbCBd_12tracing_core10subscriber10Subscriber10clone_span
FNDA:0,_RNvXs0_NtCseLUTM0PnGP2_16kernel_companion13observabilityNtB5_16SimpleSubscriberNtNtCsj4LBVRCbCBd_12tracing_core10subscriber10Subscriber14max_level_hint
FNDA:0,_RNvXs0_NtCseLUTM0PnGP2_16kernel_companion13observabilityNtB5_16SimpleSubscriberNtNtCsj4LBVRCbCBd_12tracing_core10subscriber10Subscriber17register_callsite
FNDA:0,_RNvXs0_NtCseLUTM0PnGP2_16kernel_companion13observabilityNtB5_16SimpleSubscriberNtNtCsj4LBVRCbCBd_12tracing_core10subscriber10Subscriber19record_follows_from
FNDA:0,_RNvXs0_NtCseLUTM0PnGP2_16kernel_companion13observabilityNtB5_16SimpleSubscriberNtNtCsj4LBVRCbCBd_12tracing_core10subscriber10Subscriber4exit
FNDA:0,_RNvXs0_NtCseLUTM0PnGP2_16kernel_companion13observabilityNtB5_16SimpleSubscriberNtNtCsj4LBVRCbCBd_12tracing_core10subscriber10Subscriber5enter
FNDA:0,_RNvXs0_NtCseLUTM0PnGP2_16kernel_companion13observabilityNtB5_16SimpleSubscriberNtNtCsj4LBVRCbCBd_12tracing_core10subscriber10Subscriber5event
FNDA:0,_RNvXs0_NtCseLUTM0PnGP2_16kernel_companion13observabilityNtB5_16SimpleSubscriberNtNtCsj4LBVRCbCBd_12tracing_core10subscriber10Subscriber6record
FNDA:0,_RNvXs0_NtCseLUTM0PnGP2_16kernel_companion13observabilityNtB5_16SimpleSubscriberNtNtCsj4LBVRCbCBd_12tracing_core10subscriber10Subscriber7enabled
FNDA:0,_RNvXs0_NtCseLUTM0PnGP2_16kernel_companion13observabilityNtB5_16SimpleSubscriberNtNtCsj4LBVRCbCBd_12tracing_core10subscriber10Subscriber8new_span
FNDA:0,_RNvXs0_NtCseLUTM0PnGP2_16kernel_companion13observabilityNtB5_16SimpleSubscriberNtNtCsj4LBVRCbCBd_12tracing_core10subscriber10Subscriber9try_close
FNDA:0,_RNvXs2_NtCseLUTM0PnGP2_16kernel_companion13observabilityNtB5_12EventVisitorNtNtCsj4LBVRCbCBd_12tracing_core5field5Visit10record_i64
FNDA:0,_RNvXs2_NtCseLUTM0PnGP2_16kernel_companion13observabilityNtB5_12EventVisitorNtNtCsj4LBVRCbCBd_12tracing_core5field5Visit10record_str
FNDA:0,_RNvXs2_NtCseLUTM0PnGP2_16kernel_companion13observabilityNtB5_12EventVisitorNtNtCsj4LBVRCbCBd_12tracing_core5field5Visit10record_u64
FNDA:0,_RNvXs2_NtCseLUTM0PnGP2_16kernel_companion13observabilityNtB5_12EventVisitorNtNtCsj4LBVRCbCBd_12tracing_core5field5Visit11record_bool
FNDA:0,_RNvXs2_NtCseLUTM0PnGP2_16kernel_companion13observabilityNtB5_12EventVisitorNtNtCsj4LBVRCbCBd_12tracing_core5field5Visit12record_debug
FNDA:1,_RNvNtNtCseLUTM0PnGP2_16kernel_companion13observability5testss_34register_and_render_kernel_metrics
FNDA:1,_RNCNvNtCseLUTM0PnGP2_16kernel_companion13observability14kernel_metrics0B5_
FNDA:7,_RNvMNtCseLUTM0PnGP2_16kernel_companion13observabilityNtB2_13KernelMetrics15set_active_mode
FNDA:47,_RNvMNtCseLUTM0PnGP2_16kernel_companion13observabilityNtB2_13KernelMetrics19record_lsm_decision
FNDA:1,_RNvMNtCseLUTM0PnGP2_16kernel_companion13observabilityNtB2_13KernelMetrics19record_syscall_drop
FNDA:22,_RNvMNtCseLUTM0PnGP2_16kernel_companion13observabilityNtB2_13KernelMetrics20record_syscall_event
FNDA:1,_RNvMNtCseLUTM0PnGP2_16kernel_companion13observabilityNtB2_13KernelMetrics20set_blocked_syscalls
FNDA:7,_RNvMNtCseLUTM0PnGP2_16kernel_companion13observabilityNtB2_13KernelMetrics21record_attach_attempt
FNDA:2,_RNvMNtCseLUTM0PnGP2_16kernel_companion13observabilityNtB2_13KernelMetrics8register
FNDA:85,_RNvNtCseLUTM0PnGP2_16kernel_companion13observability14kernel_metrics
FNF:32
FNH:10
DA:29,4
DA:30,4
DA:31,4
DA:35,4
DA:36,0
DA:38,4
DA:41,0
DA:43,4
DA:44,4
DA:48,4
DA:49,0
DA:51,4
DA:52,4
DA:56,4
DA:57,0
DA:59,4
DA:60,4
DA:64,4
DA:65,0
DA:67,4
DA:68,4
DA:72,4
DA:73,0
DA:75,4
DA:76,4
DA:77,4
DA:78,4
DA:79,4
DA:80,4
DA:82,4
DA:83,4
DA:84,4
DA:85,4
DA:86,4
DA:87,4
DA:88,4
DA:89,4
DA:90,4
DA:92,10059
DA:93,10059
DA:94,10059
DA:95,10059
DA:96,10059
DA:98,1
DA:99,1
DA:100,1
DA:102,10
DA:103,10
DA:104,10
DA:105,10
DA:106,10
DA:108,10
DA:109,20
DA:110,20
DA:111,20
DA:112,20
DA:114,10
DA:116,10034
DA:117,10034
DA:118,10034
DA:119,10034
DA:120,10034
DA:122,1
DA:123,1
DA:124,1
DA:125,1
DA:126,1
DA:130,20115
DA:131,20115
DA:132,3
DA:133,3
DA:134,3
DA:135,20115
DA:137,0
DA:138,0
DA:139,0
DA:140,0
DA:142,0
DA:143,0
DA:145,0
DA:146,0
DA:148,0
DA:149,0
DA:150,0
DA:153,0
DA:155,0
DA:156,0
DA:157,0
DA:158,0
DA:159,0
DA:160,0
DA:161,0
DA:163,0
DA:171,0
DA:172,0
DA:173,0
DA:174,0
DA:175,0
DA:176,0
DA:180,0
DA:181,0
DA:182,0
DA:184,0
DA:185,0
DA:186,0
DA:188,0
DA:190,0
DA:192,0
DA:193,0
DA:194,0
DA:195,0
DA:196,0
DA:198,0
DA:199,0
DA:201,0
DA:202,0
DA:203,0
DA:204,0
DA:205,0
DA:206,0
DA:207,0
DA:209,0
DA:210,0
DA:211,0
DA:213,0
DA:215,0
DA:217,0
DA:219,0
DA:220,0
DA:221,0
DA:223,0
DA:224,0
DA:225,0
DA:227,0
DA:228,0
DA:229,0
DA:231,0
DA:233,0
DA:235,0
DA:236,0
DA:237,0
DA:246,0
DA:247,0
DA:248,0
DA:250,0
DA:251,0
DA:252,0
DA:254,0
DA:256,0
DA:260,0
DA:261,0
DA:262,0
DA:264,0
DA:265,0
DA:266,0
DA:268,0
DA:269,0
DA:270,0
DA:272,0
DA:273,0
DA:274,0
DA:276,0
DA:277,0
DA:278,0
DA:286,1
DA:287,1
DA:288,1
DA:290,1
DA:291,1
DA:292,1
DA:293,1
DA:294,1
DA:295,1
DA:297,1
DA:298,1
DA:299,1
DA:300,1
DA:301,1
DA:302,1
DA:303,1
DA:304,1
BRF:0
BRH:0
LF:183
LH:85
end_of_record
SF:/home/lokis/Documents/AI-Native-Kernel/crates/kernel-companion/src/uds.rs
FN:128,_RNCNCNCNCNvNtCseVkF4WK7ytE_16kernel_companion3uds16start_uds_server00s_00Bb_
FN:130,_RNCNCNCNCNvNtCseVkF4WK7ytE_16kernel_companion3uds16start_uds_server00s_0s0_0Bb_
FN:129,_RNCNCNCNCNvNtCseVkF4WK7ytE_16kernel_companion3uds16start_uds_server00s_0s_0Bb_
FN:53,_RNCNCNCNvNtCseVkF4WK7ytE_16kernel_companion3uds16start_uds_server00s_0B9_
FN:35,_RNCNCNvNtCseVkF4WK7ytE_16kernel_companion3uds16start_uds_server00B7_
FN:23,_RNCNvNtCseVkF4WK7ytE_16kernel_companion3uds16start_uds_server0B5_
FN:15,_RNvNtCseVkF4WK7ytE_16kernel_companion3uds16start_uds_server
FN:128,_RNCNCNCNCNvNtCseLUTM0PnGP2_16kernel_companion3uds16start_uds_server00s_00Bb_
FN:130,_RNCNCNCNCNvNtCseLUTM0PnGP2_16kernel_companion3uds16start_uds_server00s_0s0_0Bb_
FN:129,_RNCNCNCNCNvNtCseLUTM0PnGP2_16kernel_companion3uds16start_uds_server00s_0s_0Bb_
FN:53,_RNCNCNCNvNtCseLUTM0PnGP2_16kernel_companion3uds16start_uds_server00s_0B9_
FN:35,_RNCNCNvNtCseLUTM0PnGP2_16kernel_companion3uds16start_uds_server00B7_
FN:23,_RNCNvNtCseLUTM0PnGP2_16kernel_companion3uds16start_uds_server0B5_
FN:251,_RNCNvNtNtCseLUTM0PnGP2_16kernel_companion3uds5tests12send_command0B7_
FN:230,_RNCNvNtNtCseLUTM0PnGP2_16kernel_companion3uds5tests16spawn_uds_server0B7_
FN:340,_RNCNvNtNtCseLUTM0PnGP2_16kernel_companion3uds5testss_27uds_list_quarantine_command0B7_
FN:373,_RNCNvNtNtCseLUTM0PnGP2_16kernel_companion3uds5testss_31uds_set_lsm_profile_without_lsm0B7_
FN:354,_RNCNvNtNtCseLUTM0PnGP2_16kernel_companion3uds5testss_31uds_set_threshold_without_tcell0B7_
FN:323,_RNCNvNtNtCseLUTM0PnGP2_16kernel_companion3uds5testss_33uds_status_command_returns_online0B7_
FN:451,_RNCNvNtNtCseLUTM0PnGP2_16kernel_companion3uds5testss_34uds_set_threshold_missing_metadata0B7_
FN:390,_RNCNvNtNtCseLUTM0PnGP2_16kernel_companion3uds5testss_36uds_unknown_command_publishes_to_bus0B7_
FN:271,_RNCNvNtNtCseLUTM0PnGP2_16kernel_companion3uds5testss_37test_uds_server_lifecycle_and_publish0B7_
FN:422,_RNCNvNtNtCseLUTM0PnGP2_16kernel_companion3uds5testss_39uds_non_command_intent_publishes_to_bus0B7_
FN:15,_RNvNtCseLUTM0PnGP2_16kernel_companion3uds16start_uds_server
FN:247,_RNvNtNtCseLUTM0PnGP2_16kernel_companion3uds5tests12send_command
FN:230,_RNvNtNtCseLUTM0PnGP2_16kernel_companion3uds5tests16spawn_uds_server
FN:340,_RNvNtNtCseLUTM0PnGP2_16kernel_companion3uds5testss_27uds_list_quarantine_command
FN:373,_RNvNtNtCseLUTM0PnGP2_16kernel_companion3uds5testss_31uds_set_lsm_profile_without_lsm
FN:354,_RNvNtNtCseLUTM0PnGP2_16kernel_companion3uds5testss_31uds_set_threshold_without_tcell
FN:323,_RNvNtNtCseLUTM0PnGP2_16kernel_companion3uds5testss_33uds_status_command_returns_online
FN:451,_RNvNtNtCseLUTM0PnGP2_16kernel_companion3uds5testss_34uds_set_threshold_missing_metadata
FN:390,_RNvNtNtCseLUTM0PnGP2_16kernel_companion3uds5testss_36uds_unknown_command_publishes_to_bus
FN:271,_RNvNtNtCseLUTM0PnGP2_16kernel_companion3uds5testss_37test_uds_server_lifecycle_and_publish
FN:422,_RNvNtNtCseLUTM0PnGP2_16kernel_companion3uds5testss_39uds_non_command_intent_publishes_to_bus
FNDA:0,_RNCNCNCNCNvNtCseVkF4WK7ytE_16kernel_companion3uds16start_uds_server00s_00Bb_
FNDA:0,_RNCNCNCNCNvNtCseVkF4WK7ytE_16kernel_companion3uds16start_uds_server00s_0s0_0Bb_
FNDA:0,_RNCNCNCNCNvNtCseVkF4WK7ytE_16kernel_companion3uds16start_uds_server00s_0s_0Bb_
FNDA:0,_RNCNCNCNvNtCseVkF4WK7ytE_16kernel_companion3uds16start_uds_server00s_0B9_
FNDA:0,_RNCNCNvNtCseVkF4WK7ytE_16kernel_companion3uds16start_uds_server00B7_
FNDA:0,_RNCNvNtCseVkF4WK7ytE_16kernel_companion3uds16start_uds_server0B5_
FNDA:0,_RNvNtCseVkF4WK7ytE_16kernel_companion3uds16start_uds_server
FNDA:1,_RNCNCNCNCNvNtCseLUTM0PnGP2_16kernel_companion3uds16start_uds_server00s_00Bb_
FNDA:0,_RNCNCNCNCNvNtCseLUTM0PnGP2_16kernel_companion3uds16start_uds_server00s_0s0_0Bb_
FNDA:2,_RNCNCNCNCNvNtCseLUTM0PnGP2_16kernel_companion3uds16start_uds_server00s_0s_0Bb_
FNDA:8,_RNCNCNCNvNtCseLUTM0PnGP2_16kernel_companion3uds16start_uds_server00s_0B9_
FNDA:8,_RNCNCNvNtCseLUTM0PnGP2_16kernel_companion3uds16start_uds_server00B7_
FNDA:10,_RNCNvNtCseLUTM0PnGP2_16kernel_companion3uds16start_uds_server0B5_
FNDA:5,_RNCNvNtNtCseLUTM0PnGP2_16kernel_companion3uds5tests12send_command0B7_
FNDA:7,_RNCNvNtNtCseLUTM0PnGP2_16kernel_companion3uds5tests16spawn_uds_server0B7_
FNDA:1,_RNCNvNtNtCseLUTM0PnGP2_16kernel_companion3uds5testss_27uds_list_quarantine_command0B7_
FNDA:1,_RNCNvNtNtCseLUTM0PnGP2_16kernel_companion3uds5testss_31uds_set_lsm_profile_without_lsm0B7_
FNDA:1,_RNCNvNtNtCseLUTM0PnGP2_16kernel_companion3uds5testss_31uds_set_threshold_without_tcell0B7_
FNDA:1,_RNCNvNtNtCseLUTM0PnGP2_16kernel_companion3uds5testss_33uds_status_command_returns_online0B7_
FNDA:1,_RNCNvNtNtCseLUTM0PnGP2_16kernel_companion3uds5testss_34uds_set_threshold_missing_metadata0B7_
FNDA:1,_RNCNvNtNtCseLUTM0PnGP2_16kernel_companion3uds5testss_36uds_unknown_command_publishes_to_bus0B7_
FNDA:1,_RNCNvNtNtCseLUTM0PnGP2_16kernel_companion3uds5testss_37test_uds_server_lifecycle_and_publish0B7_
FNDA:1,_RNCNvNtNtCseLUTM0PnGP2_16kernel_companion3uds5testss_39uds_non_command_intent_publishes_to_bus0B7_
FNDA:10,_RNvNtCseLUTM0PnGP2_16kernel_companion3uds16start_uds_server
FNDA:5,_RNvNtNtCseLUTM0PnGP2_16kernel_companion3uds5tests12send_command
FNDA:7,_RNvNtNtCseLUTM0PnGP2_16kernel_companion3uds5tests16spawn_uds_server
FNDA:1,_RNvNtNtCseLUTM0PnGP2_16kernel_companion3uds5testss_27uds_list_quarantine_command
FNDA:1,_RNvNtNtCseLUTM0PnGP2_16kernel_companion3uds5testss_31uds_set_lsm_profile_without_lsm
FNDA:1,_RNvNtNtCseLUTM0PnGP2_16kernel_companion3uds5testss_31uds_set_threshold_without_tcell
FNDA:1,_RNvNtNtCseLUTM0PnGP2_16kernel_companion3uds5testss_33uds_status_command_returns_online
FNDA:1,_RNvNtNtCseLUTM0PnGP2_16kernel_companion3uds5testss_34uds_set_threshold_missing_metadata
FNDA:1,_RNvNtNtCseLUTM0PnGP2_16kernel_companion3uds5testss_36uds_unknown_command_publishes_to_bus
FNDA:1,_RNvNtNtCseLUTM0PnGP2_16kernel_companion3uds5testss_37test_uds_server_lifecycle_and_publish
FNDA:1,_RNvNtNtCseLUTM0PnGP2_16kernel_companion3uds5testss_39uds_non_command_intent_publishes_to_bus
FNF:27
FNH:26
DA:15,10
DA:16,10
DA:17,10
DA:18,10
DA:19,10
DA:20,10
DA:21,10
DA:22,10
DA:23,10
DA:25,10
DA:27,10
DA:28,8
DA:30,8
DA:31,8
DA:32,8
DA:33,8
DA:35,8
DA:37,57
DA:38,57
DA:39,49
DA:40,8
DA:41,8
DA:42,41
DA:44,57
DA:45,8
DA:46,8
DA:47,8
DA:48,8
DA:49,8
DA:50,8
DA:51,8
DA:53,8
DA:54,8
DA:55,8
DA:56,8
DA:59,17
DA:60,17
DA:61,0
DA:63,9
DA:64,8
DA:67,8
DA:68,7
DA:70,7
DA:71,1
DA:72,1
DA:73,1
DA:74,1
DA:75,1
DA:76,1
DA:78,1
DA:79,0
DA:80,1
DA:81,1
DA:82,0
DA:83,1
DA:84,1
DA:85,0
DA:86,0
DA:87,0
DA:88,1
DA:89,1
DA:90,0
DA:91,0
DA:92,0
DA:93,0
DA:94,0
DA:95,0
DA:96,0
DA:97,0
DA:98,1
DA:100,1
DA:101,1
DA:102,1
DA:103,1
DA:104,1
DA:105,1
DA:106,1
DA:107,1
DA:109,1
DA:110,1
DA:111,1
DA:112,1
DA:114,6
DA:115,1
DA:116,1
DA:117,0
DA:118,1
DA:119,1
DA:120,1
DA:122,1
DA:123,1
DA:124,1
DA:125,1
DA:127,5
DA:128,2
DA:129,2
DA:130,2
DA:132,2
DA:133,2
DA:134,1
DA:135,0
DA:136,0
DA:137,1
DA:138,1
DA:140,2
DA:141,2
DA:142,2
DA:144,2
DA:145,2
DA:146,2
DA:147,2
DA:149,3
DA:150,1
DA:151,1
DA:152,1
DA:153,1
DA:154,1
DA:155,1
DA:157,1
DA:158,1
DA:159,0
DA:160,0
DA:161,0
DA:162,0
DA:163,0
DA:164,0
DA:165,0
DA:166,0
DA:167,0
DA:168,0
DA:169,0
DA:170,0
DA:171,0
DA:173,1
DA:174,1
DA:175,1
DA:176,0
DA:178,1
DA:179,1
DA:180,1
DA:181,1
DA:182,1
DA:183,1
DA:185,1
DA:186,1
DA:187,1
DA:188,1
DA:189,2
DA:190,1
DA:193,3
DA:194,0
DA:195,3
DA:197,1
DA:200,0
DA:201,0
DA:202,0
DA:206,0
DA:208,0
DA:209,0
DA:215,8
DA:217,8
DA:218,10
DA:230,7
DA:231,7
DA:232,7
DA:233,7
DA:234,7
DA:235,7
DA:236,7
DA:237,7
DA:238,7
DA:239,7
DA:240,7
DA:241,7
DA:242,7
DA:243,7
DA:244,7
DA:247,5
DA:248,5
DA:249,5
DA:250,5
DA:251,5
DA:252,5
DA:253,5
DA:254,5
DA:255,5
DA:256,5
DA:259,5
DA:260,5
DA:261,5
DA:262,5
DA:264,5
DA:265,5
DA:266,5
DA:267,5
DA:268,5
DA:271,1
DA:272,1
DA:273,1
DA:274,1
DA:275,1
DA:277,1
DA:278,1
DA:279,1
DA:280,1
DA:281,1
DA:282,1
DA:283,1
DA:284,1
DA:286,1
DA:288,1
DA:289,1
DA:290,1
DA:292,1
DA:294,1
DA:296,1
DA:300,1
DA:301,1
DA:302,1
DA:304,1
DA:305,1
DA:306,1
DA:307,1
DA:309,1
DA:310,1
DA:313,1
DA:314,1
DA:315,1
DA:317,1
DA:318,1
DA:319,1
DA:320,1
DA:323,1
DA:324,1
DA:325,1
DA:327,1
DA:328,1
DA:329,1
DA:330,1
DA:331,1
DA:332,1
DA:334,1
DA:335,1
DA:336,1
DA:337,1
DA:340,1
DA:341,1
DA:342,1
DA:344,1
DA:345,1
DA:346,1
DA:348,1
DA:349,1
DA:350,1
DA:351,1
DA:354,1
DA:355,1
DA:356,1
DA:358,1
DA:359,1
DA:360,1
DA:361,1
DA:362,1
DA:364,1
DA:365,1
DA:367,1
DA:368,1
DA:369,1
DA:370,1
DA:373,1
DA:374,1
DA:375,1
DA:377,1
DA:378,1
DA:379,1
DA:380,1
DA:381,1
DA:382,1
DA:384,1
DA:385,1
DA:386,1
DA:387,1
DA:390,1
DA:391,1
DA:392,1
DA:393,1
DA:396,1
DA:397,1
DA:398,1
DA:400,1
DA:402,1
DA:405,1
DA:406,1
DA:407,1
DA:408,1
DA:410,1
DA:411,1
DA:412,1
DA:413,1
DA:414,1
DA:416,1
DA:417,1
DA:418,1
DA:419,1
DA:422,1
DA:423,1
DA:424,1
DA:425,1
DA:427,1
DA:429,1
DA:431,1
DA:434,1
DA:435,1
DA:436,1
DA:438,1
DA:439,1
DA:440,1
DA:441,1
DA:442,1
DA:443,1
DA:445,1
DA:446,1
DA:447,1
DA:448,1
DA:451,1
DA:452,1
DA:453,1
DA:456,1
DA:457,1
DA:458,1
DA:459,1
DA:460,1
DA:462,1
DA:463,1
DA:464,1
DA:465,1
BRF:0
BRH:0
LF:360
LH:321
end_of_record